
LD_TEC_PS.elf:     file format elf32-avr

Sections:
Idx Name          Size      VMA       LMA       File off  Algn
  0 .text         000012ae  00000000  00000000  00000094  2**1
                  CONTENTS, ALLOC, LOAD, READONLY, CODE
  1 .data         00000002  00800060  000012ae  00001342  2**0
                  CONTENTS, ALLOC, LOAD, DATA
  2 .bss          00000032  00800062  00800062  00001344  2**0
                  ALLOC
  3 .comment      00000030  00000000  00000000  00001344  2**0
                  CONTENTS, READONLY
  4 .note.gnu.avr.deviceinfo 0000003c  00000000  00000000  00001374  2**2
                  CONTENTS, READONLY
  5 .debug_aranges 00000118  00000000  00000000  000013b0  2**0
                  CONTENTS, READONLY, DEBUGGING
  6 .debug_info   00000cde  00000000  00000000  000014c8  2**0
                  CONTENTS, READONLY, DEBUGGING
  7 .debug_abbrev 00000556  00000000  00000000  000021a6  2**0
                  CONTENTS, READONLY, DEBUGGING
  8 .debug_line   00000789  00000000  00000000  000026fc  2**0
                  CONTENTS, READONLY, DEBUGGING
  9 .debug_frame  0000041c  00000000  00000000  00002e88  2**2
                  CONTENTS, READONLY, DEBUGGING
 10 .debug_str    000004b5  00000000  00000000  000032a4  2**0
                  CONTENTS, READONLY, DEBUGGING
 11 .debug_loc    0000088d  00000000  00000000  00003759  2**0
                  CONTENTS, READONLY, DEBUGGING
 12 .debug_ranges 000000c8  00000000  00000000  00003fe6  2**0
                  CONTENTS, READONLY, DEBUGGING

Disassembly of section .text:

00000000 <__vectors>:
       0:	1f c0       	rjmp	.+62     	; 0x40 <__ctors_end>
       2:	39 c0       	rjmp	.+114    	; 0x76 <__bad_interrupt>
       4:	38 c0       	rjmp	.+112    	; 0x76 <__bad_interrupt>
       6:	37 c0       	rjmp	.+110    	; 0x76 <__bad_interrupt>
       8:	36 c0       	rjmp	.+108    	; 0x76 <__bad_interrupt>
       a:	35 c0       	rjmp	.+106    	; 0x76 <__bad_interrupt>
       c:	66 c5       	rjmp	.+2764   	; 0xada <__vector_6>
       e:	33 c0       	rjmp	.+102    	; 0x76 <__bad_interrupt>
      10:	32 c0       	rjmp	.+100    	; 0x76 <__bad_interrupt>
      12:	58 c8       	rjmp	.-3920   	; 0xfffff0c4 <__eeprom_end+0xff7ef0c4>
      14:	30 c0       	rjmp	.+96     	; 0x76 <__bad_interrupt>
      16:	2f c0       	rjmp	.+94     	; 0x76 <__bad_interrupt>
      18:	2e c0       	rjmp	.+92     	; 0x76 <__bad_interrupt>
      1a:	2d c0       	rjmp	.+90     	; 0x76 <__bad_interrupt>
      1c:	70 c5       	rjmp	.+2784   	; 0xafe <__vector_14>
      1e:	2b c0       	rjmp	.+86     	; 0x76 <__bad_interrupt>
      20:	2a c0       	rjmp	.+84     	; 0x76 <__bad_interrupt>
      22:	29 c0       	rjmp	.+82     	; 0x76 <__bad_interrupt>
      24:	28 c0       	rjmp	.+80     	; 0x76 <__bad_interrupt>

00000026 <__trampolines_end>:
      26:	3f 0c       	add	r3, r15
      28:	5b 5e       	subi	r21, 0xEB	; 235
      2a:	6c 76       	andi	r22, 0x6C	; 108
      2c:	77 1c       	adc	r7, r7
      2e:	7f 7e       	andi	r23, 0xEF	; 239

00000030 <EncState>:
      30:	00 ff 01 00 01 00 00 ff ff 00 00 01 00 01 ff 00     ................

00000040 <__ctors_end>:
      40:	11 24       	eor	r1, r1
      42:	1f be       	out	0x3f, r1	; 63
      44:	cf e5       	ldi	r28, 0x5F	; 95
      46:	d4 e0       	ldi	r29, 0x04	; 4
      48:	de bf       	out	0x3e, r29	; 62
      4a:	cd bf       	out	0x3d, r28	; 61

0000004c <__do_copy_data>:
      4c:	10 e0       	ldi	r17, 0x00	; 0
      4e:	a0 e6       	ldi	r26, 0x60	; 96
      50:	b0 e0       	ldi	r27, 0x00	; 0
      52:	ee ea       	ldi	r30, 0xAE	; 174
      54:	f2 e1       	ldi	r31, 0x12	; 18
      56:	02 c0       	rjmp	.+4      	; 0x5c <__do_copy_data+0x10>
      58:	05 90       	lpm	r0, Z+
      5a:	0d 92       	st	X+, r0
      5c:	a2 36       	cpi	r26, 0x62	; 98
      5e:	b1 07       	cpc	r27, r17
      60:	d9 f7       	brne	.-10     	; 0x58 <__do_copy_data+0xc>

00000062 <__do_clear_bss>:
      62:	20 e0       	ldi	r18, 0x00	; 0
      64:	a2 e6       	ldi	r26, 0x62	; 98
      66:	b0 e0       	ldi	r27, 0x00	; 0
      68:	01 c0       	rjmp	.+2      	; 0x6c <.do_clear_bss_start>

0000006a <.do_clear_bss_loop>:
      6a:	1d 92       	st	X+, r1

0000006c <.do_clear_bss_start>:
      6c:	a4 39       	cpi	r26, 0x94	; 148
      6e:	b2 07       	cpc	r27, r18
      70:	e1 f7       	brne	.-8      	; 0x6a <.do_clear_bss_loop>
      72:	a2 d5       	rcall	.+2884   	; 0xbb8 <main>
      74:	1a c9       	rjmp	.-3532   	; 0xfffff2aa <__eeprom_end+0xff7ef2aa>

00000076 <__bad_interrupt>:
      76:	c4 cf       	rjmp	.-120    	; 0x0 <__vectors>

00000078 <digit>:
/// Ï‡ÒÒË‚-˝Í‡Ì

/// Ï‡ÒÒË‚ ÒËÏ‚ÓÎÓ‚-ˆËÙ
const uint8_t digits[] PROGMEM = {d_0,d_1,d_2,d_3,d_4,d_5,d_6,d_7,d_8,d_9};
static uint8_t digit(uint8_t d) 
{
      78:	cf 93       	push	r28
      7a:	df 93       	push	r29
      7c:	00 d0       	rcall	.+0      	; 0x7e <digit+0x6>
      7e:	00 d0       	rcall	.+0      	; 0x80 <digit+0x8>
      80:	cd b7       	in	r28, 0x3d	; 61
      82:	de b7       	in	r29, 0x3e	; 62
      84:	8c 83       	std	Y+4, r24	; 0x04
	return pgm_read_byte(&digits[d]);	
      86:	8c 81       	ldd	r24, Y+4	; 0x04
      88:	88 2f       	mov	r24, r24
      8a:	90 e0       	ldi	r25, 0x00	; 0
      8c:	8a 5d       	subi	r24, 0xDA	; 218
      8e:	9f 4f       	sbci	r25, 0xFF	; 255
      90:	9a 83       	std	Y+2, r25	; 0x02
      92:	89 83       	std	Y+1, r24	; 0x01
      94:	89 81       	ldd	r24, Y+1	; 0x01
      96:	9a 81       	ldd	r25, Y+2	; 0x02
      98:	fc 01       	movw	r30, r24
      9a:	84 91       	lpm	r24, Z
      9c:	8b 83       	std	Y+3, r24	; 0x03
      9e:	8b 81       	ldd	r24, Y+3	; 0x03
}
      a0:	0f 90       	pop	r0
      a2:	0f 90       	pop	r0
      a4:	0f 90       	pop	r0
      a6:	0f 90       	pop	r0
      a8:	df 91       	pop	r29
      aa:	cf 91       	pop	r28
      ac:	08 95       	ret

000000ae <SegDyn>:
	
PT_THREAD(SegDyn(struct pt *pt))
{
      ae:	ef 92       	push	r14
      b0:	ff 92       	push	r15
      b2:	0f 93       	push	r16
      b4:	1f 93       	push	r17
      b6:	cf 93       	push	r28
      b8:	df 93       	push	r29
      ba:	00 d0       	rcall	.+0      	; 0xbc <SegDyn+0xe>
      bc:	1f 92       	push	r1
      be:	cd b7       	in	r28, 0x3d	; 61
      c0:	de b7       	in	r29, 0x3e	; 62
      c2:	9b 83       	std	Y+3, r25	; 0x03
      c4:	8a 83       	std	Y+2, r24	; 0x02
	static volatile uint32_t last_timer=0;
	static volatile uint8_t cathode=0;
	
	PT_BEGIN(pt);
      c6:	81 e0       	ldi	r24, 0x01	; 1
      c8:	89 83       	std	Y+1, r24	; 0x01
      ca:	8a 81       	ldd	r24, Y+2	; 0x02
      cc:	9b 81       	ldd	r25, Y+3	; 0x03
      ce:	fc 01       	movw	r30, r24
      d0:	80 81       	ld	r24, Z
      d2:	91 81       	ldd	r25, Z+1	; 0x01
      d4:	86 32       	cpi	r24, 0x26	; 38
      d6:	91 05       	cpc	r25, r1
      d8:	79 f0       	breq	.+30     	; 0xf8 <SegDyn+0x4a>
      da:	8b 32       	cpi	r24, 0x2B	; 43
      dc:	91 05       	cpc	r25, r1
      de:	09 f4       	brne	.+2      	; 0xe2 <SegDyn+0x34>
      e0:	4c c0       	rjmp	.+152    	; 0x17a <SegDyn+0xcc>
      e2:	89 2b       	or	r24, r25
      e4:	09 f4       	brne	.+2      	; 0xe8 <SegDyn+0x3a>
      e6:	9b c0       	rjmp	.+310    	; 0x21e <SegDyn+0x170>
      e8:	a2 c0       	rjmp	.+324    	; 0x22e <SegDyn+0x180>
	while (cathode<SCR_SIZE)
	{
		PT_WAIT_UNTIL(pt, (st_millis()-last_timer)>=5);
      ea:	8a 81       	ldd	r24, Y+2	; 0x02
      ec:	9b 81       	ldd	r25, Y+3	; 0x03
      ee:	26 e2       	ldi	r18, 0x26	; 38
      f0:	30 e0       	ldi	r19, 0x00	; 0
      f2:	fc 01       	movw	r30, r24
      f4:	31 83       	std	Z+1, r19	; 0x01
      f6:	20 83       	st	Z, r18
      f8:	1d d8       	rcall	.-4038   	; 0xfffff134 <__eeprom_end+0xff7ef134>
      fa:	9b 01       	movw	r18, r22
      fc:	ac 01       	movw	r20, r24
      fe:	80 91 62 00 	lds	r24, 0x0062
     102:	90 91 63 00 	lds	r25, 0x0063
     106:	a0 91 64 00 	lds	r26, 0x0064
     10a:	b0 91 65 00 	lds	r27, 0x0065
     10e:	79 01       	movw	r14, r18
     110:	8a 01       	movw	r16, r20
     112:	e8 1a       	sub	r14, r24
     114:	f9 0a       	sbc	r15, r25
     116:	0a 0b       	sbc	r16, r26
     118:	1b 0b       	sbc	r17, r27
     11a:	d8 01       	movw	r26, r16
     11c:	c7 01       	movw	r24, r14
     11e:	05 97       	sbiw	r24, 0x05	; 5
     120:	a1 05       	cpc	r26, r1
     122:	b1 05       	cpc	r27, r1
     124:	10 f4       	brcc	.+4      	; 0x12a <SegDyn+0x7c>
     126:	80 e0       	ldi	r24, 0x00	; 0
     128:	89 c0       	rjmp	.+274    	; 0x23c <SegDyn+0x18e>
		last_timer=st_millis();
     12a:	04 d8       	rcall	.-4088   	; 0xfffff134 <__eeprom_end+0xff7ef134>
     12c:	dc 01       	movw	r26, r24
     12e:	cb 01       	movw	r24, r22
     130:	80 93 62 00 	sts	0x0062, r24
     134:	90 93 63 00 	sts	0x0063, r25
     138:	a0 93 64 00 	sts	0x0064, r26
     13c:	b0 93 65 00 	sts	0x0065, r27
		LCD_PORT_1=0;//segments off, CC0 off
     140:	82 e3       	ldi	r24, 0x32	; 50
     142:	90 e0       	ldi	r25, 0x00	; 0
     144:	fc 01       	movw	r30, r24
     146:	10 82       	st	Z, r1
		LCD_PORT_2&=(~(_BV(6))); //CC2, CC3 off (ÛÒÚ‡ÌÓ‚ËÚ¸ ÌÛÎË Ì‡‰Ó)
     148:	88 e3       	ldi	r24, 0x38	; 56
     14a:	90 e0       	ldi	r25, 0x00	; 0
     14c:	28 e3       	ldi	r18, 0x38	; 56
     14e:	30 e0       	ldi	r19, 0x00	; 0
     150:	f9 01       	movw	r30, r18
     152:	20 81       	ld	r18, Z
     154:	2f 7b       	andi	r18, 0xBF	; 191
     156:	fc 01       	movw	r30, r24
     158:	20 83       	st	Z, r18
		LCD_PORT_2&=(~(_BV(7)));
     15a:	88 e3       	ldi	r24, 0x38	; 56
     15c:	90 e0       	ldi	r25, 0x00	; 0
     15e:	28 e3       	ldi	r18, 0x38	; 56
     160:	30 e0       	ldi	r19, 0x00	; 0
     162:	f9 01       	movw	r30, r18
     164:	20 81       	ld	r18, Z
     166:	2f 77       	andi	r18, 0x7F	; 127
     168:	fc 01       	movw	r30, r24
     16a:	20 83       	st	Z, r18
		PT_WAIT_UNTIL(pt, (st_millis()-last_timer)>=1);
     16c:	8a 81       	ldd	r24, Y+2	; 0x02
     16e:	9b 81       	ldd	r25, Y+3	; 0x03
     170:	2b e2       	ldi	r18, 0x2B	; 43
     172:	30 e0       	ldi	r19, 0x00	; 0
     174:	fc 01       	movw	r30, r24
     176:	31 83       	std	Z+1, r19	; 0x01
     178:	20 83       	st	Z, r18
     17a:	dc d7       	rcall	.+4024   	; 0x1134 <st_millis>
     17c:	9b 01       	movw	r18, r22
     17e:	ac 01       	movw	r20, r24
     180:	80 91 62 00 	lds	r24, 0x0062
     184:	90 91 63 00 	lds	r25, 0x0063
     188:	a0 91 64 00 	lds	r26, 0x0064
     18c:	b0 91 65 00 	lds	r27, 0x0065
     190:	28 17       	cp	r18, r24
     192:	39 07       	cpc	r19, r25
     194:	4a 07       	cpc	r20, r26
     196:	5b 07       	cpc	r21, r27
     198:	11 f4       	brne	.+4      	; 0x19e <SegDyn+0xf0>
     19a:	80 e0       	ldi	r24, 0x00	; 0
     19c:	4f c0       	rjmp	.+158    	; 0x23c <SegDyn+0x18e>
		LCD_PORT_1|=(digit((uint8_t)SCR_D[cathode]));
     19e:	80 91 66 00 	lds	r24, 0x0066
     1a2:	88 2f       	mov	r24, r24
     1a4:	90 e0       	ldi	r25, 0x00	; 0
     1a6:	8f 56       	subi	r24, 0x6F	; 111
     1a8:	9f 4f       	sbci	r25, 0xFF	; 255
     1aa:	fc 01       	movw	r30, r24
     1ac:	80 81       	ld	r24, Z
     1ae:	64 df       	rcall	.-312    	; 0x78 <digit>
     1b0:	48 2f       	mov	r20, r24
     1b2:	82 e3       	ldi	r24, 0x32	; 50
     1b4:	90 e0       	ldi	r25, 0x00	; 0
     1b6:	22 e3       	ldi	r18, 0x32	; 50
     1b8:	30 e0       	ldi	r19, 0x00	; 0
     1ba:	f9 01       	movw	r30, r18
     1bc:	20 81       	ld	r18, Z
     1be:	24 2b       	or	r18, r20
     1c0:	fc 01       	movw	r30, r24
     1c2:	20 83       	st	Z, r18
		if (cathode==0) LCD_PORT_1|=(_BV(7));
     1c4:	80 91 66 00 	lds	r24, 0x0066
     1c8:	88 23       	and	r24, r24
     1ca:	49 f4       	brne	.+18     	; 0x1de <SegDyn+0x130>
     1cc:	82 e3       	ldi	r24, 0x32	; 50
     1ce:	90 e0       	ldi	r25, 0x00	; 0
     1d0:	22 e3       	ldi	r18, 0x32	; 50
     1d2:	30 e0       	ldi	r19, 0x00	; 0
     1d4:	f9 01       	movw	r30, r18
     1d6:	20 81       	ld	r18, Z
     1d8:	20 68       	ori	r18, 0x80	; 128
     1da:	fc 01       	movw	r30, r24
     1dc:	20 83       	st	Z, r18
		if (cathode==1) LCD_PORT_2|=(_BV(6));
     1de:	80 91 66 00 	lds	r24, 0x0066
     1e2:	81 30       	cpi	r24, 0x01	; 1
     1e4:	49 f4       	brne	.+18     	; 0x1f8 <SegDyn+0x14a>
     1e6:	88 e3       	ldi	r24, 0x38	; 56
     1e8:	90 e0       	ldi	r25, 0x00	; 0
     1ea:	28 e3       	ldi	r18, 0x38	; 56
     1ec:	30 e0       	ldi	r19, 0x00	; 0
     1ee:	f9 01       	movw	r30, r18
     1f0:	20 81       	ld	r18, Z
     1f2:	20 64       	ori	r18, 0x40	; 64
     1f4:	fc 01       	movw	r30, r24
     1f6:	20 83       	st	Z, r18
		if (cathode==2) LCD_PORT_2|=(_BV(7));
     1f8:	80 91 66 00 	lds	r24, 0x0066
     1fc:	82 30       	cpi	r24, 0x02	; 2
     1fe:	49 f4       	brne	.+18     	; 0x212 <SegDyn+0x164>
     200:	88 e3       	ldi	r24, 0x38	; 56
     202:	90 e0       	ldi	r25, 0x00	; 0
     204:	28 e3       	ldi	r18, 0x38	; 56
     206:	30 e0       	ldi	r19, 0x00	; 0
     208:	f9 01       	movw	r30, r18
     20a:	20 81       	ld	r18, Z
     20c:	20 68       	ori	r18, 0x80	; 128
     20e:	fc 01       	movw	r30, r24
     210:	20 83       	st	Z, r18
		//LCD_PORT_1|=(digit((uint8_t)SCR_D[cathode]));
		cathode++;
     212:	80 91 66 00 	lds	r24, 0x0066
     216:	8f 5f       	subi	r24, 0xFF	; 255
     218:	80 93 66 00 	sts	0x0066, r24
     21c:	01 c0       	rjmp	.+2      	; 0x220 <SegDyn+0x172>
{
	static volatile uint32_t last_timer=0;
	static volatile uint8_t cathode=0;
	
	PT_BEGIN(pt);
	while (cathode<SCR_SIZE)
     21e:	00 00       	nop
     220:	80 91 66 00 	lds	r24, 0x0066
     224:	83 30       	cpi	r24, 0x03	; 3
     226:	08 f4       	brcc	.+2      	; 0x22a <SegDyn+0x17c>
     228:	60 cf       	rjmp	.-320    	; 0xea <SegDyn+0x3c>
		if (cathode==1) LCD_PORT_2|=(_BV(6));
		if (cathode==2) LCD_PORT_2|=(_BV(7));
		//LCD_PORT_1|=(digit((uint8_t)SCR_D[cathode]));
		cathode++;
	}
	cathode=0;
     22a:	10 92 66 00 	sts	0x0066, r1
	PT_END(pt);
     22e:	19 82       	std	Y+1, r1	; 0x01
     230:	8a 81       	ldd	r24, Y+2	; 0x02
     232:	9b 81       	ldd	r25, Y+3	; 0x03
     234:	fc 01       	movw	r30, r24
     236:	11 82       	std	Z+1, r1	; 0x01
     238:	10 82       	st	Z, r1
     23a:	83 e0       	ldi	r24, 0x03	; 3
}
     23c:	0f 90       	pop	r0
     23e:	0f 90       	pop	r0
     240:	0f 90       	pop	r0
     242:	df 91       	pop	r29
     244:	cf 91       	pop	r28
     246:	1f 91       	pop	r17
     248:	0f 91       	pop	r16
     24a:	ff 90       	pop	r15
     24c:	ef 90       	pop	r14
     24e:	08 95       	ret

00000250 <EncoderScan>:
	else ButtonState=BUTTON_ON;
}
*/

PT_THREAD(EncoderScan(struct pt *pt))
{
     250:	cf 93       	push	r28
     252:	df 93       	push	r29
     254:	00 d0       	rcall	.+0      	; 0x256 <EncoderScan+0x6>
     256:	00 d0       	rcall	.+0      	; 0x258 <EncoderScan+0x8>
     258:	00 d0       	rcall	.+0      	; 0x25a <EncoderScan+0xa>
     25a:	cd b7       	in	r28, 0x3d	; 61
     25c:	de b7       	in	r29, 0x3e	; 62
     25e:	9e 83       	std	Y+6, r25	; 0x06
     260:	8d 83       	std	Y+5, r24	; 0x05
	static	uint8_t	EncVal=1;
	static	uint8_t	Enc=0;
	static uint8_t enc_timer=0;
	
	PT_BEGIN(pt);
     262:	81 e0       	ldi	r24, 0x01	; 1
     264:	89 83       	std	Y+1, r24	; 0x01
     266:	8d 81       	ldd	r24, Y+5	; 0x05
     268:	9e 81       	ldd	r25, Y+6	; 0x06
     26a:	fc 01       	movw	r30, r24
     26c:	80 81       	ld	r24, Z
     26e:	91 81       	ldd	r25, Z+1	; 0x01
     270:	87 32       	cpi	r24, 0x27	; 39
     272:	91 05       	cpc	r25, r1
     274:	69 f0       	breq	.+26     	; 0x290 <EncoderScan+0x40>
     276:	8b 32       	cpi	r24, 0x2B	; 43
     278:	91 05       	cpc	r25, r1
     27a:	d1 f1       	breq	.+116    	; 0x2f0 <EncoderScan+0xa0>
     27c:	89 2b       	or	r24, r25
     27e:	09 f0       	breq	.+2      	; 0x282 <EncoderScan+0x32>
     280:	7d c0       	rjmp	.+250    	; 0x37c <EncoderScan+0x12c>
	PT_WAIT_UNTIL(pt, st_millis()-enc_timer>=1);
     282:	8d 81       	ldd	r24, Y+5	; 0x05
     284:	9e 81       	ldd	r25, Y+6	; 0x06
     286:	27 e2       	ldi	r18, 0x27	; 39
     288:	30 e0       	ldi	r19, 0x00	; 0
     28a:	fc 01       	movw	r30, r24
     28c:	31 83       	std	Z+1, r19	; 0x01
     28e:	20 83       	st	Z, r18
     290:	51 d7       	rcall	.+3746   	; 0x1134 <st_millis>
     292:	9b 01       	movw	r18, r22
     294:	ac 01       	movw	r20, r24
     296:	80 91 6a 00 	lds	r24, 0x006A
     29a:	88 2f       	mov	r24, r24
     29c:	90 e0       	ldi	r25, 0x00	; 0
     29e:	a0 e0       	ldi	r26, 0x00	; 0
     2a0:	b0 e0       	ldi	r27, 0x00	; 0
     2a2:	28 17       	cp	r18, r24
     2a4:	39 07       	cpc	r19, r25
     2a6:	4a 07       	cpc	r20, r26
     2a8:	5b 07       	cpc	r21, r27
     2aa:	11 f4       	brne	.+4      	; 0x2b0 <EncoderScan+0x60>
     2ac:	80 e0       	ldi	r24, 0x00	; 0
     2ae:	6d c0       	rjmp	.+218    	; 0x38a <EncoderScan+0x13a>
	enc_timer=st_millis();
     2b0:	41 d7       	rcall	.+3714   	; 0x1134 <st_millis>
     2b2:	dc 01       	movw	r26, r24
     2b4:	cb 01       	movw	r24, r22
     2b6:	80 93 6a 00 	sts	0x006A, r24
	
	Enc += ((PIN(ENCPOLL_PORT) & ((1<<ENCPOLL_A_PIN)|(1<<ENCPOLL_B_PIN)))>>3);
     2ba:	86 e3       	ldi	r24, 0x36	; 54
     2bc:	90 e0       	ldi	r25, 0x00	; 0
     2be:	fc 01       	movw	r30, r24
     2c0:	80 81       	ld	r24, Z
     2c2:	88 2f       	mov	r24, r24
     2c4:	90 e0       	ldi	r25, 0x00	; 0
     2c6:	88 71       	andi	r24, 0x18	; 24
     2c8:	99 27       	eor	r25, r25
     2ca:	95 95       	asr	r25
     2cc:	87 95       	ror	r24
     2ce:	95 95       	asr	r25
     2d0:	87 95       	ror	r24
     2d2:	95 95       	asr	r25
     2d4:	87 95       	ror	r24
     2d6:	98 2f       	mov	r25, r24
     2d8:	80 91 6b 00 	lds	r24, 0x006B
     2dc:	89 0f       	add	r24, r25
     2de:	80 93 6b 00 	sts	0x006B, r24
	PT_WAIT_UNTIL(pt, st_millis()-enc_timer>=1);
     2e2:	8d 81       	ldd	r24, Y+5	; 0x05
     2e4:	9e 81       	ldd	r25, Y+6	; 0x06
     2e6:	2b e2       	ldi	r18, 0x2B	; 43
     2e8:	30 e0       	ldi	r19, 0x00	; 0
     2ea:	fc 01       	movw	r30, r24
     2ec:	31 83       	std	Z+1, r19	; 0x01
     2ee:	20 83       	st	Z, r18
     2f0:	21 d7       	rcall	.+3650   	; 0x1134 <st_millis>
     2f2:	9b 01       	movw	r18, r22
     2f4:	ac 01       	movw	r20, r24
     2f6:	80 91 6a 00 	lds	r24, 0x006A
     2fa:	88 2f       	mov	r24, r24
     2fc:	90 e0       	ldi	r25, 0x00	; 0
     2fe:	a0 e0       	ldi	r26, 0x00	; 0
     300:	b0 e0       	ldi	r27, 0x00	; 0
     302:	28 17       	cp	r18, r24
     304:	39 07       	cpc	r19, r25
     306:	4a 07       	cpc	r20, r26
     308:	5b 07       	cpc	r21, r27
     30a:	11 f4       	brne	.+4      	; 0x310 <EncoderScan+0xc0>
     30c:	80 e0       	ldi	r24, 0x00	; 0
     30e:	3d c0       	rjmp	.+122    	; 0x38a <EncoderScan+0x13a>
	EncVal -= pgm_read_byte(&(EncState[Enc]));
     310:	80 91 6b 00 	lds	r24, 0x006B
     314:	88 2f       	mov	r24, r24
     316:	90 e0       	ldi	r25, 0x00	; 0
     318:	80 5d       	subi	r24, 0xD0	; 208
     31a:	9f 4f       	sbci	r25, 0xFF	; 255
     31c:	9b 83       	std	Y+3, r25	; 0x03
     31e:	8a 83       	std	Y+2, r24	; 0x02
     320:	8a 81       	ldd	r24, Y+2	; 0x02
     322:	9b 81       	ldd	r25, Y+3	; 0x03
     324:	fc 01       	movw	r30, r24
     326:	84 91       	lpm	r24, Z
     328:	8c 83       	std	Y+4, r24	; 0x04
     32a:	8c 81       	ldd	r24, Y+4	; 0x04
     32c:	90 91 60 00 	lds	r25, 0x0060
     330:	f9 2f       	mov	r31, r25
     332:	f8 1b       	sub	r31, r24
     334:	8f 2f       	mov	r24, r31
     336:	80 93 60 00 	sts	0x0060, r24
	Enc <<= 2;
     33a:	80 91 6b 00 	lds	r24, 0x006B
     33e:	88 0f       	add	r24, r24
     340:	88 0f       	add	r24, r24
     342:	80 93 6b 00 	sts	0x006B, r24
	Enc &= 0b00001111;
     346:	80 91 6b 00 	lds	r24, 0x006B
     34a:	8f 70       	andi	r24, 0x0F	; 15
     34c:	80 93 6b 00 	sts	0x006B, r24
	
	//if (EncVal > 0xfe) EncVal = 0;
	if (EncVal < 1) EncVal = 1;
     350:	80 91 60 00 	lds	r24, 0x0060
     354:	88 23       	and	r24, r24
     356:	19 f4       	brne	.+6      	; 0x35e <EncoderScan+0x10e>
     358:	81 e0       	ldi	r24, 0x01	; 1
     35a:	80 93 60 00 	sts	0x0060, r24
	if (EncVal > 254) EncVal = 254; //600 = 6A current
     35e:	80 91 60 00 	lds	r24, 0x0060
     362:	8f 3f       	cpi	r24, 0xFF	; 255
     364:	19 f4       	brne	.+6      	; 0x36c <EncoderScan+0x11c>
     366:	8e ef       	ldi	r24, 0xFE	; 254
     368:	80 93 60 00 	sts	0x0060, r24
	
	EncoderValue=EncVal;
     36c:	80 91 60 00 	lds	r24, 0x0060
     370:	88 2f       	mov	r24, r24
     372:	90 e0       	ldi	r25, 0x00	; 0
     374:	90 93 68 00 	sts	0x0068, r25
     378:	80 93 67 00 	sts	0x0067, r24
	
	PT_END(pt);
     37c:	19 82       	std	Y+1, r1	; 0x01
     37e:	8d 81       	ldd	r24, Y+5	; 0x05
     380:	9e 81       	ldd	r25, Y+6	; 0x06
     382:	fc 01       	movw	r30, r24
     384:	11 82       	std	Z+1, r1	; 0x01
     386:	10 82       	st	Z, r1
     388:	83 e0       	ldi	r24, 0x03	; 3
}
     38a:	26 96       	adiw	r28, 0x06	; 6
     38c:	0f b6       	in	r0, 0x3f	; 63
     38e:	f8 94       	cli
     390:	de bf       	out	0x3e, r29	; 62
     392:	0f be       	out	0x3f, r0	; 63
     394:	cd bf       	out	0x3d, r28	; 61
     396:	df 91       	pop	r29
     398:	cf 91       	pop	r28
     39a:	08 95       	ret

0000039c <EncoderButton>:
PT_THREAD(EncoderButton(struct pt *pt))
{
     39c:	ef 92       	push	r14
     39e:	ff 92       	push	r15
     3a0:	0f 93       	push	r16
     3a2:	1f 93       	push	r17
     3a4:	cf 93       	push	r28
     3a6:	df 93       	push	r29
     3a8:	00 d0       	rcall	.+0      	; 0x3aa <EncoderButton+0xe>
     3aa:	1f 92       	push	r1
     3ac:	cd b7       	in	r28, 0x3d	; 61
     3ae:	de b7       	in	r29, 0x3e	; 62
     3b0:	9b 83       	std	Y+3, r25	; 0x03
     3b2:	8a 83       	std	Y+2, r24	; 0x02
	static uint32_t but_timer=0;
	static uint16_t val=0;
	PT_BEGIN(pt);
     3b4:	81 e0       	ldi	r24, 0x01	; 1
     3b6:	89 83       	std	Y+1, r24	; 0x01
     3b8:	8a 81       	ldd	r24, Y+2	; 0x02
     3ba:	9b 81       	ldd	r25, Y+3	; 0x03
     3bc:	fc 01       	movw	r30, r24
     3be:	80 81       	ld	r24, Z
     3c0:	91 81       	ldd	r25, Z+1	; 0x01
     3c2:	8d 33       	cpi	r24, 0x3D	; 61
     3c4:	91 05       	cpc	r25, r1
     3c6:	71 f0       	breq	.+28     	; 0x3e4 <EncoderButton+0x48>
     3c8:	88 34       	cpi	r24, 0x48	; 72
     3ca:	91 05       	cpc	r25, r1
     3cc:	09 f4       	brne	.+2      	; 0x3d0 <EncoderButton+0x34>
     3ce:	50 c0       	rjmp	.+160    	; 0x470 <__stack+0x11>
     3d0:	89 2b       	or	r24, r25
     3d2:	09 f0       	breq	.+2      	; 0x3d6 <EncoderButton+0x3a>
     3d4:	87 c0       	rjmp	.+270    	; 0x4e4 <__stack+0x85>
	PT_WAIT_UNTIL(pt, (st_millis()-but_timer)>=1);
     3d6:	8a 81       	ldd	r24, Y+2	; 0x02
     3d8:	9b 81       	ldd	r25, Y+3	; 0x03
     3da:	2d e3       	ldi	r18, 0x3D	; 61
     3dc:	30 e0       	ldi	r19, 0x00	; 0
     3de:	fc 01       	movw	r30, r24
     3e0:	31 83       	std	Z+1, r19	; 0x01
     3e2:	20 83       	st	Z, r18
     3e4:	a7 d6       	rcall	.+3406   	; 0x1134 <st_millis>
     3e6:	9b 01       	movw	r18, r22
     3e8:	ac 01       	movw	r20, r24
     3ea:	80 91 6c 00 	lds	r24, 0x006C
     3ee:	90 91 6d 00 	lds	r25, 0x006D
     3f2:	a0 91 6e 00 	lds	r26, 0x006E
     3f6:	b0 91 6f 00 	lds	r27, 0x006F
     3fa:	28 17       	cp	r18, r24
     3fc:	39 07       	cpc	r19, r25
     3fe:	4a 07       	cpc	r20, r26
     400:	5b 07       	cpc	r21, r27
     402:	11 f4       	brne	.+4      	; 0x408 <EncoderButton+0x6c>
     404:	80 e0       	ldi	r24, 0x00	; 0
     406:	75 c0       	rjmp	.+234    	; 0x4f2 <__stack+0x93>
	but_timer=st_millis();
     408:	95 d6       	rcall	.+3370   	; 0x1134 <st_millis>
     40a:	dc 01       	movw	r26, r24
     40c:	cb 01       	movw	r24, r22
     40e:	80 93 6c 00 	sts	0x006C, r24
     412:	90 93 6d 00 	sts	0x006D, r25
     416:	a0 93 6e 00 	sts	0x006E, r26
     41a:	b0 93 6f 00 	sts	0x006F, r27
	if (((PIN(ENCBUT_PORT)&(_BV(ENCBUT_PIN)))==0)&&(val<=1000))
     41e:	86 e3       	ldi	r24, 0x36	; 54
     420:	90 e0       	ldi	r25, 0x00	; 0
     422:	fc 01       	movw	r30, r24
     424:	80 81       	ld	r24, Z
     426:	88 2f       	mov	r24, r24
     428:	90 e0       	ldi	r25, 0x00	; 0
     42a:	80 72       	andi	r24, 0x20	; 32
     42c:	99 27       	eor	r25, r25
     42e:	89 2b       	or	r24, r25
     430:	89 f4       	brne	.+34     	; 0x454 <EncoderButton+0xb8>
     432:	80 91 70 00 	lds	r24, 0x0070
     436:	90 91 71 00 	lds	r25, 0x0071
     43a:	89 3e       	cpi	r24, 0xE9	; 233
     43c:	93 40       	sbci	r25, 0x03	; 3
     43e:	50 f4       	brcc	.+20     	; 0x454 <EncoderButton+0xb8>
	{
		val++;
     440:	80 91 70 00 	lds	r24, 0x0070
     444:	90 91 71 00 	lds	r25, 0x0071
     448:	01 96       	adiw	r24, 0x01	; 1
     44a:	90 93 71 00 	sts	0x0071, r25
     44e:	80 93 70 00 	sts	0x0070, r24
     452:	48 c0       	rjmp	.+144    	; 0x4e4 <__stack+0x85>
	}
	else
	{
		if (val>900)
     454:	80 91 70 00 	lds	r24, 0x0070
     458:	90 91 71 00 	lds	r25, 0x0071
     45c:	85 38       	cpi	r24, 0x85	; 133
     45e:	93 40       	sbci	r25, 0x03	; 3
     460:	08 f1       	brcs	.+66     	; 0x4a4 <__stack+0x45>
		{
			//ButtonState=BUTTON_LONG_ON; - —ç—Ç–æ —Å–µ–π—á–∞—Å –Ω–µ –Ω—É–∂–Ω–æ, –≤–¥—Ä—É–≥ –ø—Ä–∏–≥–æ–¥–∏—Ç—Å—è –æ–±—Ä–∞–±–∞—Ç—ã–≤–∞—Ç—å –¥–æ–ª–≥–∏–µ –Ω–∞–∂–∞—Ç–∏—è
			PT_WAIT_UNTIL(pt,(st_millis()-but_timer)>=1000);
     462:	8a 81       	ldd	r24, Y+2	; 0x02
     464:	9b 81       	ldd	r25, Y+3	; 0x03
     466:	28 e4       	ldi	r18, 0x48	; 72
     468:	30 e0       	ldi	r19, 0x00	; 0
     46a:	fc 01       	movw	r30, r24
     46c:	31 83       	std	Z+1, r19	; 0x01
     46e:	20 83       	st	Z, r18
     470:	61 d6       	rcall	.+3266   	; 0x1134 <st_millis>
     472:	9b 01       	movw	r18, r22
     474:	ac 01       	movw	r20, r24
     476:	80 91 6c 00 	lds	r24, 0x006C
     47a:	90 91 6d 00 	lds	r25, 0x006D
     47e:	a0 91 6e 00 	lds	r26, 0x006E
     482:	b0 91 6f 00 	lds	r27, 0x006F
     486:	79 01       	movw	r14, r18
     488:	8a 01       	movw	r16, r20
     48a:	e8 1a       	sub	r14, r24
     48c:	f9 0a       	sbc	r15, r25
     48e:	0a 0b       	sbc	r16, r26
     490:	1b 0b       	sbc	r17, r27
     492:	d8 01       	movw	r26, r16
     494:	c7 01       	movw	r24, r14
     496:	88 3e       	cpi	r24, 0xE8	; 232
     498:	93 40       	sbci	r25, 0x03	; 3
     49a:	a1 05       	cpc	r26, r1
     49c:	b1 05       	cpc	r27, r1
     49e:	f0 f4       	brcc	.+60     	; 0x4dc <__stack+0x7d>
     4a0:	80 e0       	ldi	r24, 0x00	; 0
     4a2:	27 c0       	rjmp	.+78     	; 0x4f2 <__stack+0x93>
		}
		else if (val>=5)
     4a4:	80 91 70 00 	lds	r24, 0x0070
     4a8:	90 91 71 00 	lds	r25, 0x0071
     4ac:	05 97       	sbiw	r24, 0x05	; 5
     4ae:	b0 f0       	brcs	.+44     	; 0x4dc <__stack+0x7d>
		{
			if (ButtonState==BUTTON_ADC) ButtonState=BUTTON_ENC;
     4b0:	80 91 69 00 	lds	r24, 0x0069
     4b4:	88 23       	and	r24, r24
     4b6:	21 f4       	brne	.+8      	; 0x4c0 <__stack+0x61>
     4b8:	81 e0       	ldi	r24, 0x01	; 1
     4ba:	80 93 69 00 	sts	0x0069, r24
     4be:	0e c0       	rjmp	.+28     	; 0x4dc <__stack+0x7d>
			else if (ButtonState==BUTTON_ENC) ButtonState=BUTTON_PID;
     4c0:	80 91 69 00 	lds	r24, 0x0069
     4c4:	81 30       	cpi	r24, 0x01	; 1
     4c6:	21 f4       	brne	.+8      	; 0x4d0 <__stack+0x71>
     4c8:	82 e0       	ldi	r24, 0x02	; 2
     4ca:	80 93 69 00 	sts	0x0069, r24
     4ce:	06 c0       	rjmp	.+12     	; 0x4dc <__stack+0x7d>
			else if (ButtonState==BUTTON_PID) ButtonState=BUTTON_ADC;
     4d0:	80 91 69 00 	lds	r24, 0x0069
     4d4:	82 30       	cpi	r24, 0x02	; 2
     4d6:	11 f4       	brne	.+4      	; 0x4dc <__stack+0x7d>
     4d8:	10 92 69 00 	sts	0x0069, r1
			//button_change_state();
		}
		val=0;
     4dc:	10 92 71 00 	sts	0x0071, r1
     4e0:	10 92 70 00 	sts	0x0070, r1
	}
	PT_END(pt);
     4e4:	19 82       	std	Y+1, r1	; 0x01
     4e6:	8a 81       	ldd	r24, Y+2	; 0x02
     4e8:	9b 81       	ldd	r25, Y+3	; 0x03
     4ea:	fc 01       	movw	r30, r24
     4ec:	11 82       	std	Z+1, r1	; 0x01
     4ee:	10 82       	st	Z, r1
     4f0:	83 e0       	ldi	r24, 0x03	; 3
}
     4f2:	0f 90       	pop	r0
     4f4:	0f 90       	pop	r0
     4f6:	0f 90       	pop	r0
     4f8:	df 91       	pop	r29
     4fa:	cf 91       	pop	r28
     4fc:	1f 91       	pop	r17
     4fe:	0f 91       	pop	r16
     500:	ff 90       	pop	r15
     502:	ef 90       	pop	r14
     504:	08 95       	ret

00000506 <divmodu10>:
volatile uint8_t SCR_D[SCR_SIZE];
static struct PID_DATA *pid_reg_st;


inline static struct divmod10_t divmodu10(uint32_t n)
{
     506:	2f 92       	push	r2
     508:	3f 92       	push	r3
     50a:	4f 92       	push	r4
     50c:	5f 92       	push	r5
     50e:	6f 92       	push	r6
     510:	7f 92       	push	r7
     512:	8f 92       	push	r8
     514:	9f 92       	push	r9
     516:	af 92       	push	r10
     518:	bf 92       	push	r11
     51a:	cf 92       	push	r12
     51c:	df 92       	push	r13
     51e:	ef 92       	push	r14
     520:	ff 92       	push	r15
     522:	0f 93       	push	r16
     524:	1f 93       	push	r17
     526:	cf 93       	push	r28
     528:	df 93       	push	r29
     52a:	cd b7       	in	r28, 0x3d	; 61
     52c:	de b7       	in	r29, 0x3e	; 62
     52e:	62 97       	sbiw	r28, 0x12	; 18
     530:	0f b6       	in	r0, 0x3f	; 63
     532:	f8 94       	cli
     534:	de bf       	out	0x3e, r29	; 62
     536:	0f be       	out	0x3f, r0	; 63
     538:	cd bf       	out	0x3d, r28	; 61
     53a:	6f 87       	std	Y+15, r22	; 0x0f
     53c:	78 8b       	std	Y+16, r23	; 0x10
     53e:	89 8b       	std	Y+17, r24	; 0x11
     540:	9a 8b       	std	Y+18, r25	; 0x12
	struct divmod10_t res;
	// —É–º–Ω–æ–∂–∞–µ–º –Ω–∞ 0.8
	res.quot = n >> 1;
     542:	8f 85       	ldd	r24, Y+15	; 0x0f
     544:	98 89       	ldd	r25, Y+16	; 0x10
     546:	a9 89       	ldd	r26, Y+17	; 0x11
     548:	ba 89       	ldd	r27, Y+18	; 0x12
     54a:	b6 95       	lsr	r27
     54c:	a7 95       	ror	r26
     54e:	97 95       	ror	r25
     550:	87 95       	ror	r24
     552:	8a 87       	std	Y+10, r24	; 0x0a
     554:	9b 87       	std	Y+11, r25	; 0x0b
     556:	ac 87       	std	Y+12, r26	; 0x0c
     558:	bd 87       	std	Y+13, r27	; 0x0d
	res.quot += res.quot >> 1;
     55a:	2a 85       	ldd	r18, Y+10	; 0x0a
     55c:	3b 85       	ldd	r19, Y+11	; 0x0b
     55e:	4c 85       	ldd	r20, Y+12	; 0x0c
     560:	5d 85       	ldd	r21, Y+13	; 0x0d
     562:	8a 85       	ldd	r24, Y+10	; 0x0a
     564:	9b 85       	ldd	r25, Y+11	; 0x0b
     566:	ac 85       	ldd	r26, Y+12	; 0x0c
     568:	bd 85       	ldd	r27, Y+13	; 0x0d
     56a:	b6 95       	lsr	r27
     56c:	a7 95       	ror	r26
     56e:	97 95       	ror	r25
     570:	87 95       	ror	r24
     572:	82 0f       	add	r24, r18
     574:	93 1f       	adc	r25, r19
     576:	a4 1f       	adc	r26, r20
     578:	b5 1f       	adc	r27, r21
     57a:	8a 87       	std	Y+10, r24	; 0x0a
     57c:	9b 87       	std	Y+11, r25	; 0x0b
     57e:	ac 87       	std	Y+12, r26	; 0x0c
     580:	bd 87       	std	Y+13, r27	; 0x0d
	res.quot += res.quot >> 4;
     582:	2a 85       	ldd	r18, Y+10	; 0x0a
     584:	3b 85       	ldd	r19, Y+11	; 0x0b
     586:	4c 85       	ldd	r20, Y+12	; 0x0c
     588:	5d 85       	ldd	r21, Y+13	; 0x0d
     58a:	8a 85       	ldd	r24, Y+10	; 0x0a
     58c:	9b 85       	ldd	r25, Y+11	; 0x0b
     58e:	ac 85       	ldd	r26, Y+12	; 0x0c
     590:	bd 85       	ldd	r27, Y+13	; 0x0d
     592:	68 94       	set
     594:	13 f8       	bld	r1, 3
     596:	b6 95       	lsr	r27
     598:	a7 95       	ror	r26
     59a:	97 95       	ror	r25
     59c:	87 95       	ror	r24
     59e:	16 94       	lsr	r1
     5a0:	d1 f7       	brne	.-12     	; 0x596 <divmodu10+0x90>
     5a2:	82 0f       	add	r24, r18
     5a4:	93 1f       	adc	r25, r19
     5a6:	a4 1f       	adc	r26, r20
     5a8:	b5 1f       	adc	r27, r21
     5aa:	8a 87       	std	Y+10, r24	; 0x0a
     5ac:	9b 87       	std	Y+11, r25	; 0x0b
     5ae:	ac 87       	std	Y+12, r26	; 0x0c
     5b0:	bd 87       	std	Y+13, r27	; 0x0d
	res.quot += res.quot >> 8;
     5b2:	2a 85       	ldd	r18, Y+10	; 0x0a
     5b4:	3b 85       	ldd	r19, Y+11	; 0x0b
     5b6:	4c 85       	ldd	r20, Y+12	; 0x0c
     5b8:	5d 85       	ldd	r21, Y+13	; 0x0d
     5ba:	8a 85       	ldd	r24, Y+10	; 0x0a
     5bc:	9b 85       	ldd	r25, Y+11	; 0x0b
     5be:	ac 85       	ldd	r26, Y+12	; 0x0c
     5c0:	bd 85       	ldd	r27, Y+13	; 0x0d
     5c2:	89 2f       	mov	r24, r25
     5c4:	9a 2f       	mov	r25, r26
     5c6:	ab 2f       	mov	r26, r27
     5c8:	bb 27       	eor	r27, r27
     5ca:	82 0f       	add	r24, r18
     5cc:	93 1f       	adc	r25, r19
     5ce:	a4 1f       	adc	r26, r20
     5d0:	b5 1f       	adc	r27, r21
     5d2:	8a 87       	std	Y+10, r24	; 0x0a
     5d4:	9b 87       	std	Y+11, r25	; 0x0b
     5d6:	ac 87       	std	Y+12, r26	; 0x0c
     5d8:	bd 87       	std	Y+13, r27	; 0x0d
	res.quot += res.quot >> 16;
     5da:	2a 85       	ldd	r18, Y+10	; 0x0a
     5dc:	3b 85       	ldd	r19, Y+11	; 0x0b
     5de:	4c 85       	ldd	r20, Y+12	; 0x0c
     5e0:	5d 85       	ldd	r21, Y+13	; 0x0d
     5e2:	8a 85       	ldd	r24, Y+10	; 0x0a
     5e4:	9b 85       	ldd	r25, Y+11	; 0x0b
     5e6:	ac 85       	ldd	r26, Y+12	; 0x0c
     5e8:	bd 85       	ldd	r27, Y+13	; 0x0d
     5ea:	cd 01       	movw	r24, r26
     5ec:	aa 27       	eor	r26, r26
     5ee:	bb 27       	eor	r27, r27
     5f0:	82 0f       	add	r24, r18
     5f2:	93 1f       	adc	r25, r19
     5f4:	a4 1f       	adc	r26, r20
     5f6:	b5 1f       	adc	r27, r21
     5f8:	8a 87       	std	Y+10, r24	; 0x0a
     5fa:	9b 87       	std	Y+11, r25	; 0x0b
     5fc:	ac 87       	std	Y+12, r26	; 0x0c
     5fe:	bd 87       	std	Y+13, r27	; 0x0d
	uint32_t qq = res.quot;
     600:	8a 85       	ldd	r24, Y+10	; 0x0a
     602:	9b 85       	ldd	r25, Y+11	; 0x0b
     604:	ac 85       	ldd	r26, Y+12	; 0x0c
     606:	bd 85       	ldd	r27, Y+13	; 0x0d
     608:	89 83       	std	Y+1, r24	; 0x01
     60a:	9a 83       	std	Y+2, r25	; 0x02
     60c:	ab 83       	std	Y+3, r26	; 0x03
     60e:	bc 83       	std	Y+4, r27	; 0x04
	// –¥–µ–ª–∏–º –Ω–∞ 8
	res.quot >>= 3;
     610:	8a 85       	ldd	r24, Y+10	; 0x0a
     612:	9b 85       	ldd	r25, Y+11	; 0x0b
     614:	ac 85       	ldd	r26, Y+12	; 0x0c
     616:	bd 85       	ldd	r27, Y+13	; 0x0d
     618:	68 94       	set
     61a:	12 f8       	bld	r1, 2
     61c:	b6 95       	lsr	r27
     61e:	a7 95       	ror	r26
     620:	97 95       	ror	r25
     622:	87 95       	ror	r24
     624:	16 94       	lsr	r1
     626:	d1 f7       	brne	.-12     	; 0x61c <divmodu10+0x116>
     628:	8a 87       	std	Y+10, r24	; 0x0a
     62a:	9b 87       	std	Y+11, r25	; 0x0b
     62c:	ac 87       	std	Y+12, r26	; 0x0c
     62e:	bd 87       	std	Y+13, r27	; 0x0d
	// –≤—ã—á–∏—Å–ª—è–µ–º –æ—Å—Ç–∞—Ç–æ–∫
	res.rem = (uint8_t)(n - ((res.quot << 1) + (qq & ~7ul)));
     630:	2f 85       	ldd	r18, Y+15	; 0x0f
     632:	8a 85       	ldd	r24, Y+10	; 0x0a
     634:	9b 85       	ldd	r25, Y+11	; 0x0b
     636:	ac 85       	ldd	r26, Y+12	; 0x0c
     638:	bd 85       	ldd	r27, Y+13	; 0x0d
     63a:	98 2f       	mov	r25, r24
     63c:	99 0f       	add	r25, r25
     63e:	89 81       	ldd	r24, Y+1	; 0x01
     640:	88 7f       	andi	r24, 0xF8	; 248
     642:	89 0f       	add	r24, r25
     644:	92 2f       	mov	r25, r18
     646:	98 1b       	sub	r25, r24
     648:	89 2f       	mov	r24, r25
     64a:	8e 87       	std	Y+14, r24	; 0x0e
	// –∫–æ—Ä—Ä–µ–∫—Ç–∏—Ä—É–µ–º –æ—Å—Ç–∞—Ç–æ–∫ –∏ —á–∞—Å—Ç–Ω–æ–µ
	if(res.rem > 9)
     64c:	8e 85       	ldd	r24, Y+14	; 0x0e
     64e:	8a 30       	cpi	r24, 0x0A	; 10
     650:	70 f0       	brcs	.+28     	; 0x66e <divmodu10+0x168>
	{
		res.rem -= 10;
     652:	8e 85       	ldd	r24, Y+14	; 0x0e
     654:	8a 50       	subi	r24, 0x0A	; 10
     656:	8e 87       	std	Y+14, r24	; 0x0e
		res.quot++;
     658:	8a 85       	ldd	r24, Y+10	; 0x0a
     65a:	9b 85       	ldd	r25, Y+11	; 0x0b
     65c:	ac 85       	ldd	r26, Y+12	; 0x0c
     65e:	bd 85       	ldd	r27, Y+13	; 0x0d
     660:	01 96       	adiw	r24, 0x01	; 1
     662:	a1 1d       	adc	r26, r1
     664:	b1 1d       	adc	r27, r1
     666:	8a 87       	std	Y+10, r24	; 0x0a
     668:	9b 87       	std	Y+11, r25	; 0x0b
     66a:	ac 87       	std	Y+12, r26	; 0x0c
     66c:	bd 87       	std	Y+13, r27	; 0x0d
	}
	return res;
     66e:	85 e0       	ldi	r24, 0x05	; 5
     670:	fe 01       	movw	r30, r28
     672:	3a 96       	adiw	r30, 0x0a	; 10
     674:	de 01       	movw	r26, r28
     676:	15 96       	adiw	r26, 0x05	; 5
     678:	01 90       	ld	r0, Z+
     67a:	0d 92       	st	X+, r0
     67c:	8a 95       	dec	r24
     67e:	e1 f7       	brne	.-8      	; 0x678 <divmodu10+0x172>
     680:	40 e0       	ldi	r20, 0x00	; 0
     682:	4d 81       	ldd	r20, Y+5	; 0x05
     684:	30 e0       	ldi	r19, 0x00	; 0
     686:	3e 81       	ldd	r19, Y+6	; 0x06
     688:	20 e0       	ldi	r18, 0x00	; 0
     68a:	2f 81       	ldd	r18, Y+7	; 0x07
     68c:	90 e0       	ldi	r25, 0x00	; 0
     68e:	98 85       	ldd	r25, Y+8	; 0x08
     690:	80 e0       	ldi	r24, 0x00	; 0
     692:	89 85       	ldd	r24, Y+9	; 0x09
     694:	24 2e       	mov	r2, r20
     696:	33 2e       	mov	r3, r19
     698:	42 2e       	mov	r4, r18
     69a:	59 2e       	mov	r5, r25
     69c:	68 2e       	mov	r6, r24
     69e:	a2 2c       	mov	r10, r2
     6a0:	b3 2c       	mov	r11, r3
     6a2:	c4 2c       	mov	r12, r4
     6a4:	d5 2c       	mov	r13, r5
     6a6:	e6 2c       	mov	r14, r6
     6a8:	f7 2c       	mov	r15, r7
     6aa:	08 2d       	mov	r16, r8
     6ac:	19 2d       	mov	r17, r9
}
     6ae:	2a 2d       	mov	r18, r10
     6b0:	3b 2d       	mov	r19, r11
     6b2:	4c 2d       	mov	r20, r12
     6b4:	5d 2d       	mov	r21, r13
     6b6:	6e 2d       	mov	r22, r14
     6b8:	7f 2d       	mov	r23, r15
     6ba:	80 2f       	mov	r24, r16
     6bc:	91 2f       	mov	r25, r17
     6be:	62 96       	adiw	r28, 0x12	; 18
     6c0:	0f b6       	in	r0, 0x3f	; 63
     6c2:	f8 94       	cli
     6c4:	de bf       	out	0x3e, r29	; 62
     6c6:	0f be       	out	0x3f, r0	; 63
     6c8:	cd bf       	out	0x3d, r28	; 61
     6ca:	df 91       	pop	r29
     6cc:	cf 91       	pop	r28
     6ce:	1f 91       	pop	r17
     6d0:	0f 91       	pop	r16
     6d2:	ff 90       	pop	r15
     6d4:	ef 90       	pop	r14
     6d6:	df 90       	pop	r13
     6d8:	cf 90       	pop	r12
     6da:	bf 90       	pop	r11
     6dc:	af 90       	pop	r10
     6de:	9f 90       	pop	r9
     6e0:	8f 90       	pop	r8
     6e2:	7f 90       	pop	r7
     6e4:	6f 90       	pop	r6
     6e6:	5f 90       	pop	r5
     6e8:	4f 90       	pop	r4
     6ea:	3f 90       	pop	r3
     6ec:	2f 90       	pop	r2
     6ee:	08 95       	ret

000006f0 <utoa_fast_div>:

char * utoa_fast_div(uint32_t value, uint8_t *buffer)
{
     6f0:	af 92       	push	r10
     6f2:	bf 92       	push	r11
     6f4:	cf 92       	push	r12
     6f6:	df 92       	push	r13
     6f8:	ef 92       	push	r14
     6fa:	ff 92       	push	r15
     6fc:	0f 93       	push	r16
     6fe:	1f 93       	push	r17
     700:	cf 93       	push	r28
     702:	df 93       	push	r29
     704:	cd b7       	in	r28, 0x3d	; 61
     706:	de b7       	in	r29, 0x3e	; 62
     708:	2c 97       	sbiw	r28, 0x0c	; 12
     70a:	0f b6       	in	r0, 0x3f	; 63
     70c:	f8 94       	cli
     70e:	de bf       	out	0x3e, r29	; 62
     710:	0f be       	out	0x3f, r0	; 63
     712:	cd bf       	out	0x3d, r28	; 61
     714:	6f 83       	std	Y+7, r22	; 0x07
     716:	78 87       	std	Y+8, r23	; 0x08
     718:	89 87       	std	Y+9, r24	; 0x09
     71a:	9a 87       	std	Y+10, r25	; 0x0a
     71c:	5c 87       	std	Y+12, r21	; 0x0c
     71e:	4b 87       	std	Y+11, r20	; 0x0b
	
	uint8_t i=0;
     720:	19 82       	std	Y+1, r1	; 0x01
	for(i=0;i<SCR_SIZE;i++)
     722:	19 82       	std	Y+1, r1	; 0x01
     724:	0c c0       	rjmp	.+24     	; 0x73e <utoa_fast_div+0x4e>
	{
		*buffer=0;
     726:	8b 85       	ldd	r24, Y+11	; 0x0b
     728:	9c 85       	ldd	r25, Y+12	; 0x0c
     72a:	fc 01       	movw	r30, r24
     72c:	10 82       	st	Z, r1
		buffer++;
     72e:	8b 85       	ldd	r24, Y+11	; 0x0b
     730:	9c 85       	ldd	r25, Y+12	; 0x0c
     732:	01 96       	adiw	r24, 0x01	; 1
     734:	9c 87       	std	Y+12, r25	; 0x0c
     736:	8b 87       	std	Y+11, r24	; 0x0b

char * utoa_fast_div(uint32_t value, uint8_t *buffer)
{
	
	uint8_t i=0;
	for(i=0;i<SCR_SIZE;i++)
     738:	89 81       	ldd	r24, Y+1	; 0x01
     73a:	8f 5f       	subi	r24, 0xFF	; 255
     73c:	89 83       	std	Y+1, r24	; 0x01
     73e:	89 81       	ldd	r24, Y+1	; 0x01
     740:	83 30       	cpi	r24, 0x03	; 3
     742:	88 f3       	brcs	.-30     	; 0x726 <utoa_fast_div+0x36>
	} //–∫–ª–∞–¥–µ–º –Ω—É–ª–∏ –≤–æ –≤—Å–µ –º–µ—Å—Ç–∞, —á—Ç–æ–±—ã –∫–æ—Ä—Ä–µ–∫—Ç–Ω–æ –æ—Ç–æ–±—Ä–∞–∂–∞–ª–∏—Å—å –µ–¥–µ–Ω–∏—Ü—ã –∏ –¥–µ—Å—è—Ç–∫–∏
	//buffer += LCD_BUF_SIZE;//—É–∫–∞–∑—ã–≤–∞–µ—Ç –Ω–∞ –º–ª–∞–¥—à–∏–π —Ä–∞–∑—Ä—è–¥ +1
	//*--buffer = 0;//–≤—ã—á–∏—Ç–∞–µ–º –∏–∑ –∞–¥—Ä–µ—Å–∞ 1 –∏ –∫–ª–∞–¥–µ–º –≤ –º–ª–∞–¥—à–∏–π —Ä–∞–∑—Ä—è–¥ 0
	do
	{
		struct divmod10_t res = divmodu10(value);
     744:	8f 81       	ldd	r24, Y+7	; 0x07
     746:	98 85       	ldd	r25, Y+8	; 0x08
     748:	a9 85       	ldd	r26, Y+9	; 0x09
     74a:	ba 85       	ldd	r27, Y+10	; 0x0a
     74c:	bc 01       	movw	r22, r24
     74e:	cd 01       	movw	r24, r26
     750:	da de       	rcall	.-588    	; 0x506 <divmodu10>
     752:	a2 2e       	mov	r10, r18
     754:	b3 2e       	mov	r11, r19
     756:	c4 2e       	mov	r12, r20
     758:	d5 2e       	mov	r13, r21
     75a:	e6 2e       	mov	r14, r22
     75c:	f7 2e       	mov	r15, r23
     75e:	08 2f       	mov	r16, r24
     760:	19 2f       	mov	r17, r25
     762:	2a 2d       	mov	r18, r10
     764:	3b 2d       	mov	r19, r11
     766:	4c 2d       	mov	r20, r12
     768:	5d 2d       	mov	r21, r13
     76a:	6e 2d       	mov	r22, r14
     76c:	7f 2d       	mov	r23, r15
     76e:	80 2f       	mov	r24, r16
     770:	91 2f       	mov	r25, r17
     772:	2a 83       	std	Y+2, r18	; 0x02
     774:	3b 83       	std	Y+3, r19	; 0x03
     776:	4c 83       	std	Y+4, r20	; 0x04
     778:	5d 83       	std	Y+5, r21	; 0x05
     77a:	6e 83       	std	Y+6, r22	; 0x06
		*--buffer = res.rem;
     77c:	8b 85       	ldd	r24, Y+11	; 0x0b
     77e:	9c 85       	ldd	r25, Y+12	; 0x0c
     780:	01 97       	sbiw	r24, 0x01	; 1
     782:	9c 87       	std	Y+12, r25	; 0x0c
     784:	8b 87       	std	Y+11, r24	; 0x0b
     786:	2e 81       	ldd	r18, Y+6	; 0x06
     788:	8b 85       	ldd	r24, Y+11	; 0x0b
     78a:	9c 85       	ldd	r25, Y+12	; 0x0c
     78c:	fc 01       	movw	r30, r24
     78e:	20 83       	st	Z, r18
		//*buffer = res.rem + '0';
		//buffer--;
		value = res.quot;
     790:	8a 81       	ldd	r24, Y+2	; 0x02
     792:	9b 81       	ldd	r25, Y+3	; 0x03
     794:	ac 81       	ldd	r26, Y+4	; 0x04
     796:	bd 81       	ldd	r27, Y+5	; 0x05
     798:	8f 83       	std	Y+7, r24	; 0x07
     79a:	98 87       	std	Y+8, r25	; 0x08
     79c:	a9 87       	std	Y+9, r26	; 0x09
     79e:	ba 87       	std	Y+10, r27	; 0x0a
		//i++;
	}
	while (value != 0);
     7a0:	8f 81       	ldd	r24, Y+7	; 0x07
     7a2:	98 85       	ldd	r25, Y+8	; 0x08
     7a4:	a9 85       	ldd	r26, Y+9	; 0x09
     7a6:	ba 85       	ldd	r27, Y+10	; 0x0a
     7a8:	89 2b       	or	r24, r25
     7aa:	8a 2b       	or	r24, r26
     7ac:	8b 2b       	or	r24, r27
     7ae:	51 f6       	brne	.-108    	; 0x744 <utoa_fast_div+0x54>
	//if (i==1) {*(buffer-3)=0; *(buffer-2)=0;}
	//else if (i==2) {*(buffer-2)=0;}
	
	return (char *)buffer; 
     7b0:	8b 85       	ldd	r24, Y+11	; 0x0b
     7b2:	9c 85       	ldd	r25, Y+12	; 0x0c
}
     7b4:	2c 96       	adiw	r28, 0x0c	; 12
     7b6:	0f b6       	in	r0, 0x3f	; 63
     7b8:	f8 94       	cli
     7ba:	de bf       	out	0x3e, r29	; 62
     7bc:	0f be       	out	0x3f, r0	; 63
     7be:	cd bf       	out	0x3d, r28	; 61
     7c0:	df 91       	pop	r29
     7c2:	cf 91       	pop	r28
     7c4:	1f 91       	pop	r17
     7c6:	0f 91       	pop	r16
     7c8:	ff 90       	pop	r15
     7ca:	ef 90       	pop	r14
     7cc:	df 90       	pop	r13
     7ce:	cf 90       	pop	r12
     7d0:	bf 90       	pop	r11
     7d2:	af 90       	pop	r10
     7d4:	08 95       	ret

000007d6 <Adc>:
	
	PT_END(pt);
		
}
PT_THREAD(Adc(struct pt *pt))
{
     7d6:	ef 92       	push	r14
     7d8:	ff 92       	push	r15
     7da:	0f 93       	push	r16
     7dc:	1f 93       	push	r17
     7de:	cf 93       	push	r28
     7e0:	df 93       	push	r29
     7e2:	00 d0       	rcall	.+0      	; 0x7e4 <Adc+0xe>
     7e4:	1f 92       	push	r1
     7e6:	cd b7       	in	r28, 0x3d	; 61
     7e8:	de b7       	in	r29, 0x3e	; 62
     7ea:	9b 83       	std	Y+3, r25	; 0x03
     7ec:	8a 83       	std	Y+2, r24	; 0x02
	static volatile uint8_t adc_lcd_timer=0, averaging=0;
	static volatile uint32_t aver_value=0; 
	//volatile uint8_t *ptr;
	PT_BEGIN(pt);
     7ee:	81 e0       	ldi	r24, 0x01	; 1
     7f0:	89 83       	std	Y+1, r24	; 0x01
     7f2:	8a 81       	ldd	r24, Y+2	; 0x02
     7f4:	9b 81       	ldd	r25, Y+3	; 0x03
     7f6:	fc 01       	movw	r30, r24
     7f8:	80 81       	ld	r24, Z
     7fa:	91 81       	ldd	r25, Z+1	; 0x01
     7fc:	00 97       	sbiw	r24, 0x00	; 0
     7fe:	21 f0       	breq	.+8      	; 0x808 <Adc+0x32>
     800:	81 3b       	cpi	r24, 0xB1	; 177
     802:	91 05       	cpc	r25, r1
     804:	41 f0       	breq	.+16     	; 0x816 <Adc+0x40>
     806:	81 c0       	rjmp	.+258    	; 0x90a <Adc+0x134>
	PT_WAIT_UNTIL(pt,(st_millis()-adc_lcd_timer)>=10);
     808:	8a 81       	ldd	r24, Y+2	; 0x02
     80a:	9b 81       	ldd	r25, Y+3	; 0x03
     80c:	21 eb       	ldi	r18, 0xB1	; 177
     80e:	30 e0       	ldi	r19, 0x00	; 0
     810:	fc 01       	movw	r30, r24
     812:	31 83       	std	Z+1, r19	; 0x01
     814:	20 83       	st	Z, r18
     816:	8e d4       	rcall	.+2332   	; 0x1134 <st_millis>
     818:	9b 01       	movw	r18, r22
     81a:	ac 01       	movw	r20, r24
     81c:	80 91 86 00 	lds	r24, 0x0086
     820:	88 2f       	mov	r24, r24
     822:	90 e0       	ldi	r25, 0x00	; 0
     824:	a0 e0       	ldi	r26, 0x00	; 0
     826:	b0 e0       	ldi	r27, 0x00	; 0
     828:	79 01       	movw	r14, r18
     82a:	8a 01       	movw	r16, r20
     82c:	e8 1a       	sub	r14, r24
     82e:	f9 0a       	sbc	r15, r25
     830:	0a 0b       	sbc	r16, r26
     832:	1b 0b       	sbc	r17, r27
     834:	d8 01       	movw	r26, r16
     836:	c7 01       	movw	r24, r14
     838:	0a 97       	sbiw	r24, 0x0a	; 10
     83a:	a1 05       	cpc	r26, r1
     83c:	b1 05       	cpc	r27, r1
     83e:	10 f4       	brcc	.+4      	; 0x844 <Adc+0x6e>
     840:	80 e0       	ldi	r24, 0x00	; 0
     842:	6a c0       	rjmp	.+212    	; 0x918 <Adc+0x142>
	sleep_enable();
     844:	85 e5       	ldi	r24, 0x55	; 85
     846:	90 e0       	ldi	r25, 0x00	; 0
     848:	25 e5       	ldi	r18, 0x55	; 85
     84a:	30 e0       	ldi	r19, 0x00	; 0
     84c:	f9 01       	movw	r30, r18
     84e:	20 81       	ld	r18, Z
     850:	20 68       	ori	r18, 0x80	; 128
     852:	fc 01       	movw	r30, r24
     854:	20 83       	st	Z, r18
	ADCSRA|=(_BV(7))|(_BV(6));//–∑–∞—É–ø—Å–∫ –ø—Ä–µ–æ–±—Ä–∞–∑–æ–≤–∞–Ω–∏—è –ê–¶–ü
     856:	86 e2       	ldi	r24, 0x26	; 38
     858:	90 e0       	ldi	r25, 0x00	; 0
     85a:	26 e2       	ldi	r18, 0x26	; 38
     85c:	30 e0       	ldi	r19, 0x00	; 0
     85e:	f9 01       	movw	r30, r18
     860:	20 81       	ld	r18, Z
     862:	20 6c       	ori	r18, 0xC0	; 192
     864:	fc 01       	movw	r30, r24
     866:	20 83       	st	Z, r18
	sleep_cpu();
     868:	88 95       	sleep
	sleep_disable();
     86a:	85 e5       	ldi	r24, 0x55	; 85
     86c:	90 e0       	ldi	r25, 0x00	; 0
     86e:	25 e5       	ldi	r18, 0x55	; 85
     870:	30 e0       	ldi	r19, 0x00	; 0
     872:	f9 01       	movw	r30, r18
     874:	20 81       	ld	r18, Z
     876:	2f 77       	andi	r18, 0x7F	; 127
     878:	fc 01       	movw	r30, r24
     87a:	20 83       	st	Z, r18
	if (averaging<32) {
     87c:	80 91 87 00 	lds	r24, 0x0087
     880:	80 32       	cpi	r24, 0x20	; 32
     882:	00 f5       	brcc	.+64     	; 0x8c4 <Adc+0xee>
		averaging++;
     884:	80 91 87 00 	lds	r24, 0x0087
     888:	8f 5f       	subi	r24, 0xFF	; 255
     88a:	80 93 87 00 	sts	0x0087, r24
		aver_value+=ADC_values[0];
     88e:	80 91 72 00 	lds	r24, 0x0072
     892:	28 2f       	mov	r18, r24
     894:	30 e0       	ldi	r19, 0x00	; 0
     896:	40 e0       	ldi	r20, 0x00	; 0
     898:	50 e0       	ldi	r21, 0x00	; 0
     89a:	80 91 88 00 	lds	r24, 0x0088
     89e:	90 91 89 00 	lds	r25, 0x0089
     8a2:	a0 91 8a 00 	lds	r26, 0x008A
     8a6:	b0 91 8b 00 	lds	r27, 0x008B
     8aa:	82 0f       	add	r24, r18
     8ac:	93 1f       	adc	r25, r19
     8ae:	a4 1f       	adc	r26, r20
     8b0:	b5 1f       	adc	r27, r21
     8b2:	80 93 88 00 	sts	0x0088, r24
     8b6:	90 93 89 00 	sts	0x0089, r25
     8ba:	a0 93 8a 00 	sts	0x008A, r26
     8be:	b0 93 8b 00 	sts	0x008B, r27
     8c2:	1e c0       	rjmp	.+60     	; 0x900 <Adc+0x12a>
		}
	else {
		averaging=0;
     8c4:	10 92 87 00 	sts	0x0087, r1
		ADC0_value=aver_value>>5;//&&((st_millis()-adc_lcd_timer)>=1)
     8c8:	80 91 88 00 	lds	r24, 0x0088
     8cc:	90 91 89 00 	lds	r25, 0x0089
     8d0:	a0 91 8a 00 	lds	r26, 0x008A
     8d4:	b0 91 8b 00 	lds	r27, 0x008B
     8d8:	68 94       	set
     8da:	14 f8       	bld	r1, 4
     8dc:	b6 95       	lsr	r27
     8de:	a7 95       	ror	r26
     8e0:	97 95       	ror	r25
     8e2:	87 95       	ror	r24
     8e4:	16 94       	lsr	r1
     8e6:	d1 f7       	brne	.-12     	; 0x8dc <Adc+0x106>
     8e8:	90 93 78 00 	sts	0x0078, r25
     8ec:	80 93 77 00 	sts	0x0077, r24
		//ptr=&SCR_D[0];
		//ptr=(volatile uint8_t *)utoa_fast_div((uint32_t)ADC0_value, (uint8_t *)ptr);
		aver_value=0;
     8f0:	10 92 88 00 	sts	0x0088, r1
     8f4:	10 92 89 00 	sts	0x0089, r1
     8f8:	10 92 8a 00 	sts	0x008A, r1
     8fc:	10 92 8b 00 	sts	0x008B, r1
		}
	adc_lcd_timer=st_millis();
     900:	19 d4       	rcall	.+2098   	; 0x1134 <st_millis>
     902:	dc 01       	movw	r26, r24
     904:	cb 01       	movw	r24, r22
     906:	80 93 86 00 	sts	0x0086, r24
	PT_END(pt);
     90a:	19 82       	std	Y+1, r1	; 0x01
     90c:	8a 81       	ldd	r24, Y+2	; 0x02
     90e:	9b 81       	ldd	r25, Y+3	; 0x03
     910:	fc 01       	movw	r30, r24
     912:	11 82       	std	Z+1, r1	; 0x01
     914:	10 82       	st	Z, r1
     916:	83 e0       	ldi	r24, 0x03	; 3
}
     918:	0f 90       	pop	r0
     91a:	0f 90       	pop	r0
     91c:	0f 90       	pop	r0
     91e:	df 91       	pop	r29
     920:	cf 91       	pop	r28
     922:	1f 91       	pop	r17
     924:	0f 91       	pop	r16
     926:	ff 90       	pop	r15
     928:	ef 90       	pop	r14
     92a:	08 95       	ret

0000092c <LcdSwitch>:
PT_THREAD(LcdSwitch(struct pt *pt))
{
     92c:	ef 92       	push	r14
     92e:	ff 92       	push	r15
     930:	0f 93       	push	r16
     932:	1f 93       	push	r17
     934:	cf 93       	push	r28
     936:	df 93       	push	r29
     938:	cd b7       	in	r28, 0x3d	; 61
     93a:	de b7       	in	r29, 0x3e	; 62
     93c:	27 97       	sbiw	r28, 0x07	; 7
     93e:	0f b6       	in	r0, 0x3f	; 63
     940:	f8 94       	cli
     942:	de bf       	out	0x3e, r29	; 62
     944:	0f be       	out	0x3f, r0	; 63
     946:	cd bf       	out	0x3d, r28	; 61
     948:	9f 83       	std	Y+7, r25	; 0x07
     94a:	8e 83       	std	Y+6, r24	; 0x06
	static volatile uint8_t lcd_switch_timer=0; 
	char * ptr=0;
     94c:	1a 82       	std	Y+2, r1	; 0x02
     94e:	19 82       	std	Y+1, r1	; 0x01
	uint16_t pid_value=0;
     950:	1c 82       	std	Y+4, r1	; 0x04
     952:	1b 82       	std	Y+3, r1	; 0x03
	PT_BEGIN(pt);
     954:	81 e0       	ldi	r24, 0x01	; 1
     956:	8d 83       	std	Y+5, r24	; 0x05
     958:	8e 81       	ldd	r24, Y+6	; 0x06
     95a:	9f 81       	ldd	r25, Y+7	; 0x07
     95c:	fc 01       	movw	r30, r24
     95e:	80 81       	ld	r24, Z
     960:	91 81       	ldd	r25, Z+1	; 0x01
     962:	00 97       	sbiw	r24, 0x00	; 0
     964:	21 f0       	breq	.+8      	; 0x96e <LcdSwitch+0x42>
     966:	8a 3c       	cpi	r24, 0xCA	; 202
     968:	91 05       	cpc	r25, r1
     96a:	41 f0       	breq	.+16     	; 0x97c <LcdSwitch+0x50>
     96c:	a2 c0       	rjmp	.+324    	; 0xab2 <LcdSwitch+0x186>
	PT_WAIT_UNTIL(pt,(st_millis()-lcd_switch_timer)>=100);
     96e:	8e 81       	ldd	r24, Y+6	; 0x06
     970:	9f 81       	ldd	r25, Y+7	; 0x07
     972:	2a ec       	ldi	r18, 0xCA	; 202
     974:	30 e0       	ldi	r19, 0x00	; 0
     976:	fc 01       	movw	r30, r24
     978:	31 83       	std	Z+1, r19	; 0x01
     97a:	20 83       	st	Z, r18
     97c:	db d3       	rcall	.+1974   	; 0x1134 <st_millis>
     97e:	9b 01       	movw	r18, r22
     980:	ac 01       	movw	r20, r24
     982:	80 91 8c 00 	lds	r24, 0x008C
     986:	88 2f       	mov	r24, r24
     988:	90 e0       	ldi	r25, 0x00	; 0
     98a:	a0 e0       	ldi	r26, 0x00	; 0
     98c:	b0 e0       	ldi	r27, 0x00	; 0
     98e:	79 01       	movw	r14, r18
     990:	8a 01       	movw	r16, r20
     992:	e8 1a       	sub	r14, r24
     994:	f9 0a       	sbc	r15, r25
     996:	0a 0b       	sbc	r16, r26
     998:	1b 0b       	sbc	r17, r27
     99a:	d8 01       	movw	r26, r16
     99c:	c7 01       	movw	r24, r14
     99e:	84 36       	cpi	r24, 0x64	; 100
     9a0:	91 05       	cpc	r25, r1
     9a2:	a1 05       	cpc	r26, r1
     9a4:	b1 05       	cpc	r27, r1
     9a6:	10 f4       	brcc	.+4      	; 0x9ac <LcdSwitch+0x80>
     9a8:	80 e0       	ldi	r24, 0x00	; 0
     9aa:	8a c0       	rjmp	.+276    	; 0xac0 <LcdSwitch+0x194>
	ptr=&SCR_D[0];
     9ac:	81 e9       	ldi	r24, 0x91	; 145
     9ae:	90 e0       	ldi	r25, 0x00	; 0
     9b0:	9a 83       	std	Y+2, r25	; 0x02
     9b2:	89 83       	std	Y+1, r24	; 0x01
	pid_value=ABS(pid_Controller((int16_t)EncoderValue, (int16_t)ADC0_value, pid_reg_st));
     9b4:	80 91 84 00 	lds	r24, 0x0084
     9b8:	90 91 85 00 	lds	r25, 0x0085
     9bc:	20 91 77 00 	lds	r18, 0x0077
     9c0:	30 91 78 00 	lds	r19, 0x0078
     9c4:	b9 01       	movw	r22, r18
     9c6:	20 91 67 00 	lds	r18, 0x0067
     9ca:	30 91 68 00 	lds	r19, 0x0068
     9ce:	ac 01       	movw	r20, r24
     9d0:	c9 01       	movw	r24, r18
     9d2:	ff d1       	rcall	.+1022   	; 0xdd2 <pid_Controller>
     9d4:	99 23       	and	r25, r25
     9d6:	a4 f4       	brge	.+40     	; 0xa00 <LcdSwitch+0xd4>
     9d8:	80 91 84 00 	lds	r24, 0x0084
     9dc:	90 91 85 00 	lds	r25, 0x0085
     9e0:	20 91 77 00 	lds	r18, 0x0077
     9e4:	30 91 78 00 	lds	r19, 0x0078
     9e8:	b9 01       	movw	r22, r18
     9ea:	20 91 67 00 	lds	r18, 0x0067
     9ee:	30 91 68 00 	lds	r19, 0x0068
     9f2:	ac 01       	movw	r20, r24
     9f4:	c9 01       	movw	r24, r18
     9f6:	ed d1       	rcall	.+986    	; 0xdd2 <pid_Controller>
     9f8:	91 95       	neg	r25
     9fa:	81 95       	neg	r24
     9fc:	91 09       	sbc	r25, r1
     9fe:	10 c0       	rjmp	.+32     	; 0xa20 <LcdSwitch+0xf4>
     a00:	80 91 84 00 	lds	r24, 0x0084
     a04:	90 91 85 00 	lds	r25, 0x0085
     a08:	20 91 77 00 	lds	r18, 0x0077
     a0c:	30 91 78 00 	lds	r19, 0x0078
     a10:	b9 01       	movw	r22, r18
     a12:	20 91 67 00 	lds	r18, 0x0067
     a16:	30 91 68 00 	lds	r19, 0x0068
     a1a:	ac 01       	movw	r20, r24
     a1c:	c9 01       	movw	r24, r18
     a1e:	d9 d1       	rcall	.+946    	; 0xdd2 <pid_Controller>
     a20:	9c 83       	std	Y+4, r25	; 0x04
     a22:	8b 83       	std	Y+3, r24	; 0x03
	if (ButtonState==BUTTON_ADC) ptr=(volatile uint8_t *)utoa_fast_div((uint32_t)ADC0_value, (uint8_t *)ptr); //–≤–∫–ª—é—á–∏—Ç—å dot
     a24:	80 91 69 00 	lds	r24, 0x0069
     a28:	88 23       	and	r24, r24
     a2a:	79 f4       	brne	.+30     	; 0xa4a <LcdSwitch+0x11e>
     a2c:	80 91 77 00 	lds	r24, 0x0077
     a30:	90 91 78 00 	lds	r25, 0x0078
     a34:	cc 01       	movw	r24, r24
     a36:	a0 e0       	ldi	r26, 0x00	; 0
     a38:	b0 e0       	ldi	r27, 0x00	; 0
     a3a:	29 81       	ldd	r18, Y+1	; 0x01
     a3c:	3a 81       	ldd	r19, Y+2	; 0x02
     a3e:	a9 01       	movw	r20, r18
     a40:	bc 01       	movw	r22, r24
     a42:	cd 01       	movw	r24, r26
     a44:	55 de       	rcall	.-854    	; 0x6f0 <utoa_fast_div>
     a46:	9a 83       	std	Y+2, r25	; 0x02
     a48:	89 83       	std	Y+1, r24	; 0x01
	if (ButtonState==BUTTON_ENC) ptr=(volatile uint8_t *)utoa_fast_div((uint32_t)EncoderValue, (uint8_t *)ptr);
     a4a:	80 91 69 00 	lds	r24, 0x0069
     a4e:	81 30       	cpi	r24, 0x01	; 1
     a50:	79 f4       	brne	.+30     	; 0xa70 <LcdSwitch+0x144>
     a52:	80 91 67 00 	lds	r24, 0x0067
     a56:	90 91 68 00 	lds	r25, 0x0068
     a5a:	cc 01       	movw	r24, r24
     a5c:	a0 e0       	ldi	r26, 0x00	; 0
     a5e:	b0 e0       	ldi	r27, 0x00	; 0
     a60:	29 81       	ldd	r18, Y+1	; 0x01
     a62:	3a 81       	ldd	r19, Y+2	; 0x02
     a64:	a9 01       	movw	r20, r18
     a66:	bc 01       	movw	r22, r24
     a68:	cd 01       	movw	r24, r26
     a6a:	42 de       	rcall	.-892    	; 0x6f0 <utoa_fast_div>
     a6c:	9a 83       	std	Y+2, r25	; 0x02
     a6e:	89 83       	std	Y+1, r24	; 0x01
	if (ButtonState==BUTTON_PID) ptr=(volatile uint8_t *)utoa_fast_div((uint32_t)pid_value, (uint8_t *)ptr);
     a70:	80 91 69 00 	lds	r24, 0x0069
     a74:	82 30       	cpi	r24, 0x02	; 2
     a76:	69 f4       	brne	.+26     	; 0xa92 <LcdSwitch+0x166>
     a78:	8b 81       	ldd	r24, Y+3	; 0x03
     a7a:	9c 81       	ldd	r25, Y+4	; 0x04
     a7c:	cc 01       	movw	r24, r24
     a7e:	a0 e0       	ldi	r26, 0x00	; 0
     a80:	b0 e0       	ldi	r27, 0x00	; 0
     a82:	29 81       	ldd	r18, Y+1	; 0x01
     a84:	3a 81       	ldd	r19, Y+2	; 0x02
     a86:	a9 01       	movw	r20, r18
     a88:	bc 01       	movw	r22, r24
     a8a:	cd 01       	movw	r24, r26
     a8c:	31 de       	rcall	.-926    	; 0x6f0 <utoa_fast_div>
     a8e:	9a 83       	std	Y+2, r25	; 0x02
     a90:	89 83       	std	Y+1, r24	; 0x01
	pid_Reset_Integrator(pid_reg_st);
     a92:	80 91 84 00 	lds	r24, 0x0084
     a96:	90 91 85 00 	lds	r25, 0x0085
     a9a:	e4 d2       	rcall	.+1480   	; 0x1064 <pid_Reset_Integrator>
	PWM_value=EncoderValue;
     a9c:	80 91 67 00 	lds	r24, 0x0067
     aa0:	90 91 68 00 	lds	r25, 0x0068
     aa4:	80 93 79 00 	sts	0x0079, r24
	/*
	–î–ª—è –∫–æ—Ä—Ä–µ–∫—Ç–Ω–æ–π —Ä–∞–±–æ—Ç—ã –¥–∞–Ω–Ω–æ–π —Ä–µ–∞–ª–∏–∑–∞—Ü–∏–∏ –ü–ò–î–∞ –≤ —Ä–µ–∂–∏–º–µ –ü –∏–ª–∏ –ü–î –Ω–µ–æ–±—Ö–æ–¥–∏–º–æ —Å–±—Ä–∞—Å—ã–≤–∞—Ç—å –Ω–∞–∫–æ–ø–∏—Ç–µ–ª—å–Ω—É—é –æ—à–∏–±–∫—É
	–∏–Ω–∞—á–µ –ü–ò–î —Å–æ –≤—Ä–µ–º–µ–Ω–µ–º —É–ª–µ—Ç–∏—Ç –≤ –æ–≤–µ—Ä—Ñ–ª–æ—É
	*/
	lcd_switch_timer=st_millis();
     aa8:	45 d3       	rcall	.+1674   	; 0x1134 <st_millis>
     aaa:	dc 01       	movw	r26, r24
     aac:	cb 01       	movw	r24, r22
     aae:	80 93 8c 00 	sts	0x008C, r24
	PT_END(pt);
     ab2:	1d 82       	std	Y+5, r1	; 0x05
     ab4:	8e 81       	ldd	r24, Y+6	; 0x06
     ab6:	9f 81       	ldd	r25, Y+7	; 0x07
     ab8:	fc 01       	movw	r30, r24
     aba:	11 82       	std	Z+1, r1	; 0x01
     abc:	10 82       	st	Z, r1
     abe:	83 e0       	ldi	r24, 0x03	; 3
}
     ac0:	27 96       	adiw	r28, 0x07	; 7
     ac2:	0f b6       	in	r0, 0x3f	; 63
     ac4:	f8 94       	cli
     ac6:	de bf       	out	0x3e, r29	; 62
     ac8:	0f be       	out	0x3f, r0	; 63
     aca:	cd bf       	out	0x3d, r28	; 61
     acc:	df 91       	pop	r29
     ace:	cf 91       	pop	r28
     ad0:	1f 91       	pop	r17
     ad2:	0f 91       	pop	r16
     ad4:	ff 90       	pop	r15
     ad6:	ef 90       	pop	r14
     ad8:	08 95       	ret

00000ada <__vector_6>:
–¢–∞–±—É–ª—è—Ü–∏—è –∑–Ω–∞—á–µ–Ω–∏–π 8-–±–∏—Ç –ê–¶–ü –≤ —Ç—É–ø—É—é —Ç—Ä–µ–±—É–µ—Ç 256 –±–∞–π—Ç —Ñ–ª—ç—à–∞, –≤—Ç–æ—Ä–æ–π –≤–∞—Ä–∏–∞–Ω—Ç - —Ç—É–ø–æ –ø–µ—Ä–µ—Å—á–µ—Ç
(–º–∞—Ç–µ–º–∞—Ç–∏–∫–∞, –ª–∏–±–æ —Å–¥–≤–∏–≥–∏, –ª–∏–±–æ –ø—Ä–∏–¥—É–º—ã–≤–∞—Ç—å —á–Ω–≥–æ)
*/

ISR(TIMER1_COMPA_vect)
{
     ada:	1f 92       	push	r1
     adc:	0f 92       	push	r0
     ade:	00 90 5f 00 	lds	r0, 0x005F
     ae2:	0f 92       	push	r0
     ae4:	11 24       	eor	r1, r1
     ae6:	cf 93       	push	r28
     ae8:	df 93       	push	r29
     aea:	cd b7       	in	r28, 0x3d	; 61
     aec:	de b7       	in	r29, 0x3e	; 62
	OCR1AL=85;
	//TCNT1H=0; //—Å–±—Ä–æ—Å —Ç–∞–π–º–µ—Ä–∞
	//TCNT1L=0;
	sei();
	*/
}
     aee:	df 91       	pop	r29
     af0:	cf 91       	pop	r28
     af2:	0f 90       	pop	r0
     af4:	00 92 5f 00 	sts	0x005F, r0
     af8:	0f 90       	pop	r0
     afa:	1f 90       	pop	r1
     afc:	18 95       	reti

00000afe <__vector_14>:
ISR(ADC_vect)
{
     afe:	1f 92       	push	r1
     b00:	0f 92       	push	r0
     b02:	00 90 5f 00 	lds	r0, 0x005F
     b06:	0f 92       	push	r0
     b08:	11 24       	eor	r1, r1
     b0a:	2f 93       	push	r18
     b0c:	3f 93       	push	r19
     b0e:	8f 93       	push	r24
     b10:	9f 93       	push	r25
     b12:	ef 93       	push	r30
     b14:	ff 93       	push	r31
     b16:	cf 93       	push	r28
     b18:	df 93       	push	r29
     b1a:	cd b7       	in	r28, 0x3d	; 61
     b1c:	de b7       	in	r29, 0x3e	; 62
	ADC_values[ADC_counter]=ADCH;
     b1e:	80 91 76 00 	lds	r24, 0x0076
     b22:	88 2f       	mov	r24, r24
     b24:	90 e0       	ldi	r25, 0x00	; 0
     b26:	25 e2       	ldi	r18, 0x25	; 37
     b28:	30 e0       	ldi	r19, 0x00	; 0
     b2a:	f9 01       	movw	r30, r18
     b2c:	20 81       	ld	r18, Z
     b2e:	8e 58       	subi	r24, 0x8E	; 142
     b30:	9f 4f       	sbci	r25, 0xFF	; 255
     b32:	fc 01       	movw	r30, r24
     b34:	20 83       	st	Z, r18
	ADMUX|=0b00001111; //–≤—Å–µ –∫–∞–Ω–∞–ª—ã –ê–¶–ü —Å–∞–∂–∞–µ–º –Ω–∞ –∑–µ–º–ª—é, –ø–µ—Ä–æ–±—Ä–∞–∑–æ–≤–∞–Ω–∏–µ –æ–∫–æ–Ω—á–µ–Ω–æ
     b36:	87 e2       	ldi	r24, 0x27	; 39
     b38:	90 e0       	ldi	r25, 0x00	; 0
     b3a:	27 e2       	ldi	r18, 0x27	; 39
     b3c:	30 e0       	ldi	r19, 0x00	; 0
     b3e:	f9 01       	movw	r30, r18
     b40:	20 81       	ld	r18, Z
     b42:	2f 60       	ori	r18, 0x0F	; 15
     b44:	fc 01       	movw	r30, r24
     b46:	20 83       	st	Z, r18
	ADC_counter++;
     b48:	80 91 76 00 	lds	r24, 0x0076
     b4c:	8f 5f       	subi	r24, 0xFF	; 255
     b4e:	80 93 76 00 	sts	0x0076, r24
	if (ADC_counter<4) 
     b52:	80 91 76 00 	lds	r24, 0x0076
     b56:	84 30       	cpi	r24, 0x04	; 4
     b58:	68 f4       	brcc	.+26     	; 0xb74 <__vector_14+0x76>
	{
		ADMUX=(ADMUX&(~15))|ADC_counter; //–ø–æ–¥–∫–ª—é—á–∞–µ–º –Ω—É–∂–Ω—ã–π –∫–∞–Ω–∞–ª
     b5a:	87 e2       	ldi	r24, 0x27	; 39
     b5c:	90 e0       	ldi	r25, 0x00	; 0
     b5e:	27 e2       	ldi	r18, 0x27	; 39
     b60:	30 e0       	ldi	r19, 0x00	; 0
     b62:	f9 01       	movw	r30, r18
     b64:	20 81       	ld	r18, Z
     b66:	20 7f       	andi	r18, 0xF0	; 240
     b68:	30 91 76 00 	lds	r19, 0x0076
     b6c:	23 2b       	or	r18, r19
     b6e:	fc 01       	movw	r30, r24
     b70:	20 83       	st	Z, r18
     b72:	0b c0       	rjmp	.+22     	; 0xb8a <__vector_14+0x8c>
	}
	else
	{
		ADC_counter=0; //—Å–±—Ä–∞—Å—ã–≤–∞–µ–º —Å—á–µ—Ç—á–∏–∫
     b74:	10 92 76 00 	sts	0x0076, r1
		ADMUX=(ADMUX&(~15));//–ø–æ–¥–∫–ª—é—á–∞–µ–º –Ω—É–ª–µ–≤–æ–π –∫–∞–Ω–∞–ª –ê–¶–ü
     b78:	87 e2       	ldi	r24, 0x27	; 39
     b7a:	90 e0       	ldi	r25, 0x00	; 0
     b7c:	27 e2       	ldi	r18, 0x27	; 39
     b7e:	30 e0       	ldi	r19, 0x00	; 0
     b80:	f9 01       	movw	r30, r18
     b82:	20 81       	ld	r18, Z
     b84:	20 7f       	andi	r18, 0xF0	; 240
     b86:	fc 01       	movw	r30, r24
     b88:	20 83       	st	Z, r18
	}
	ADCSRA|=(_BV(6)); //—Ç–∞–∫ —Ä–∞–±–æ–∞—Ç–µ—Ç –≤ —Ä–µ–∂–∏–º–µ —Ñ—Ä–∏  —Ä–∞–Ω–∏–Ω–≥ –º–æ–¥–µ —Ö–µ—Ä–Ω—è —Å–æ —Å–º–µ—â–µ–Ω–∏–µ–º –¥–∞–Ω–Ω—ã—Ö —Å –∫–∞–Ω–∞–ª–æ–≤ –≤ –º–∞—Å—Å–∏–≤–µ
     b8a:	86 e2       	ldi	r24, 0x26	; 38
     b8c:	90 e0       	ldi	r25, 0x00	; 0
     b8e:	26 e2       	ldi	r18, 0x26	; 38
     b90:	30 e0       	ldi	r19, 0x00	; 0
     b92:	f9 01       	movw	r30, r18
     b94:	20 81       	ld	r18, Z
     b96:	20 64       	ori	r18, 0x40	; 64
     b98:	fc 01       	movw	r30, r24
     b9a:	20 83       	st	Z, r18
}
     b9c:	df 91       	pop	r29
     b9e:	cf 91       	pop	r28
     ba0:	ff 91       	pop	r31
     ba2:	ef 91       	pop	r30
     ba4:	9f 91       	pop	r25
     ba6:	8f 91       	pop	r24
     ba8:	3f 91       	pop	r19
     baa:	2f 91       	pop	r18
     bac:	0f 90       	pop	r0
     bae:	00 92 5f 00 	sts	0x005F, r0
     bb2:	0f 90       	pop	r0
     bb4:	1f 90       	pop	r1
     bb6:	18 95       	reti

00000bb8 <main>:
	//UCSRB &=~(1<<UDRIE); //–∑–∞–ø—Ä–µ—â–∞–µ–º –ø—Ä–µ—Ä—ã–≤–∞–Ω–∏–µ –æ—Ç UART, –ø–µ—Ä–µ–¥–∞—á–∞ —â–∞–∞	
}
*/

int main(void)
{
     bb8:	cf 93       	push	r28
     bba:	df 93       	push	r29
     bbc:	cd b7       	in	r28, 0x3d	; 61
     bbe:	de b7       	in	r29, 0x3e	; 62
	//volatile uint8_t *ptr;
	//uint8_t noise_level_value=0;
	//initiate ports
	DDRD=255; //all pins on portd are outputs
     bc0:	81 e3       	ldi	r24, 0x31	; 49
     bc2:	90 e0       	ldi	r25, 0x00	; 0
     bc4:	2f ef       	ldi	r18, 0xFF	; 255
     bc6:	fc 01       	movw	r30, r24
     bc8:	20 83       	st	Z, r18
	DDRB=0b11000111;
     bca:	87 e3       	ldi	r24, 0x37	; 55
     bcc:	90 e0       	ldi	r25, 0x00	; 0
     bce:	27 ec       	ldi	r18, 0xC7	; 199
     bd0:	fc 01       	movw	r30, r24
     bd2:	20 83       	st	Z, r18
	DDRC=0b11110000;//ADC pins inputs
     bd4:	84 e3       	ldi	r24, 0x34	; 52
     bd6:	90 e0       	ldi	r25, 0x00	; 0
     bd8:	20 ef       	ldi	r18, 0xF0	; 240
     bda:	fc 01       	movw	r30, r24
     bdc:	20 83       	st	Z, r18
	//DDRA='0b11010000';
	PORTD=0;
     bde:	82 e3       	ldi	r24, 0x32	; 50
     be0:	90 e0       	ldi	r25, 0x00	; 0
     be2:	fc 01       	movw	r30, r24
     be4:	10 82       	st	Z, r1
	PORTB=0b00111000;
     be6:	88 e3       	ldi	r24, 0x38	; 56
     be8:	90 e0       	ldi	r25, 0x00	; 0
     bea:	28 e3       	ldi	r18, 0x38	; 56
     bec:	fc 01       	movw	r30, r24
     bee:	20 83       	st	Z, r18
	PORTC=0;
     bf0:	85 e3       	ldi	r24, 0x35	; 53
     bf2:	90 e0       	ldi	r25, 0x00	; 0
     bf4:	fc 01       	movw	r30, r24
     bf6:	10 82       	st	Z, r1
	   PORTB PIN1 - out PWM TEC, PIN2- input ERROR_IN (RED_BUTTON), PIN3,PIN4 - inputs encoder, PIN5 - input encoder button  
	   PortA - Pin0 - Cur_Mon, Pin1 - V_mon, Pin2 - NTC1, PIN3 - NTC2, PIN4 - LD_PWM_OUT, PIN5 - DS raiator sensor

*/
	// Set prescaler to 64
	TCCR0 |= (_BV(CS01) | _BV(CS00));
     bf8:	83 e5       	ldi	r24, 0x53	; 83
     bfa:	90 e0       	ldi	r25, 0x00	; 0
     bfc:	23 e5       	ldi	r18, 0x53	; 83
     bfe:	30 e0       	ldi	r19, 0x00	; 0
     c00:	f9 01       	movw	r30, r18
     c02:	20 81       	ld	r18, Z
     c04:	23 60       	ori	r18, 0x03	; 3
     c06:	fc 01       	movw	r30, r24
     c08:	20 83       	st	Z, r18
	// Enable interrupt
	//TIMSK |= _BV(TOIE0) | _BV(OCIE1A);
	// Set default value
	TCNT0 = ST_CTC_HANDMADE; //1ms tiks on 8mhz CPU clock
     c0a:	82 e5       	ldi	r24, 0x52	; 82
     c0c:	90 e0       	ldi	r25, 0x00	; 0
     c0e:	22 e8       	ldi	r18, 0x82	; 130
     c10:	fc 01       	movw	r30, r24
     c12:	20 83       	st	Z, r18
	
	//set timer 1 for PWM
	TCCR1A=0b10000001; //–ø–µ—Ä–µ–∫–ª—é—á–µ–Ω–∏–µ oc1A –ø–æ —Å–æ–±—ã—Ç–∏–µ –Ω–∞ —Ç–∞–π–º–µ—Ä–µ, oc1b –ª—å–∫–ª—é—á–µ–Ω, WGM10=1, 8 –±–∏—Ç —Ç–∞–π–º–µ—Ä
     c14:	8f e4       	ldi	r24, 0x4F	; 79
     c16:	90 e0       	ldi	r25, 0x00	; 0
     c18:	21 e8       	ldi	r18, 0x81	; 129
     c1a:	fc 01       	movw	r30, r24
     c1c:	20 83       	st	Z, r18
	TCCR1B=0b00001001; //clocked from CLK=8MHZ WGM12=1
     c1e:	8e e4       	ldi	r24, 0x4E	; 78
     c20:	90 e0       	ldi	r25, 0x00	; 0
     c22:	29 e0       	ldi	r18, 0x09	; 9
     c24:	fc 01       	movw	r30, r24
     c26:	20 83       	st	Z, r18
	OCR1AH=0;
     c28:	8b e4       	ldi	r24, 0x4B	; 75
     c2a:	90 e0       	ldi	r25, 0x00	; 0
     c2c:	fc 01       	movw	r30, r24
     c2e:	10 82       	st	Z, r1
	OCR1AL=127;//50% –®–ò–ú 
     c30:	8a e4       	ldi	r24, 0x4A	; 74
     c32:	90 e0       	ldi	r25, 0x00	; 0
     c34:	2f e7       	ldi	r18, 0x7F	; 127
     c36:	fc 01       	movw	r30, r24
     c38:	20 83       	st	Z, r18
	TCNT1=0;
     c3a:	8c e4       	ldi	r24, 0x4C	; 76
     c3c:	90 e0       	ldi	r25, 0x00	; 0
     c3e:	fc 01       	movw	r30, r24
     c40:	11 82       	std	Z+1, r1	; 0x01
     c42:	10 82       	st	Z, r1
	TIMSK=0;
     c44:	89 e5       	ldi	r24, 0x59	; 89
     c46:	90 e0       	ldi	r25, 0x00	; 0
     c48:	fc 01       	movw	r30, r24
     c4a:	10 82       	st	Z, r1
	TIMSK |= _BV(TOIE0) | _BV(OCIE1A);
     c4c:	89 e5       	ldi	r24, 0x59	; 89
     c4e:	90 e0       	ldi	r25, 0x00	; 0
     c50:	29 e5       	ldi	r18, 0x59	; 89
     c52:	30 e0       	ldi	r19, 0x00	; 0
     c54:	f9 01       	movw	r30, r18
     c56:	20 81       	ld	r18, Z
     c58:	21 61       	ori	r18, 0x11	; 17
     c5a:	fc 01       	movw	r30, r24
     c5c:	20 83       	st	Z, r18
	//–∏–Ω–∏—Ü–∏–∞–ª–∏–∑–∞—Ü–∏—è –ê–¶–ü
	ADMUX=0b11100000; //–æ–ø–æ—Ä–Ω–æ–µ –Ω–∞–ø—Ä—è–∂–µ–Ω–∏–µ –æ—Ç –≤–Ω—É—Ç—Ä–µ–Ω–Ω–µ–≥–æ –ò–û–ù (2,56V), –≤—ã—Ä–∞–≤–Ω–∏–≤–∞–Ω–∏–µ –ø–æ –ª–µ–≤–æ–º—É –∫—Ä–∞—é (—á–∏—Ç–∞–µ–º —Ç–æ–ª—å–∫–æ ADCH), –ø—Ä–∏—Å–æ–µ–¥–∏–Ω–∏—Ç—å –ê–¶–ü –∫ –≤—Ö–æ–¥—É ADC0;
     c5e:	87 e2       	ldi	r24, 0x27	; 39
     c60:	90 e0       	ldi	r25, 0x00	; 0
     c62:	20 ee       	ldi	r18, 0xE0	; 224
     c64:	fc 01       	movw	r30, r24
     c66:	20 83       	st	Z, r18
	ADCSRA=0b00001111; //—Ä–µ–∑—Ä–µ—à–∏—Ç—å –ø—Ä–µ—Ä—ã–≤–∞–Ω–∏–µ –æ—Ç –ê–¶–ü, –£—Å—Ç–∞–Ω–æ–≤–∏—Ç—å –¥–µ–ª–∏—Ç–µ–ª—å —á–∞—Å—Ç–æ—Ç—ã 128
     c68:	86 e2       	ldi	r24, 0x26	; 38
     c6a:	90 e0       	ldi	r25, 0x00	; 0
     c6c:	2f e0       	ldi	r18, 0x0F	; 15
     c6e:	fc 01       	movw	r30, r24
     c70:	20 83       	st	Z, r18
	MCUCR|=0b00010000;//—É—Å—Ç–∞–Ω–æ–≤–∏—Ç—å ADC_noise canceling mode
     c72:	85 e5       	ldi	r24, 0x55	; 85
     c74:	90 e0       	ldi	r25, 0x00	; 0
     c76:	25 e5       	ldi	r18, 0x55	; 85
     c78:	30 e0       	ldi	r19, 0x00	; 0
     c7a:	f9 01       	movw	r30, r18
     c7c:	20 81       	ld	r18, Z
     c7e:	20 61       	ori	r18, 0x10	; 16
     c80:	fc 01       	movw	r30, r24
     c82:	20 83       	st	Z, r18
	UCSRB = 1<<RXEN|1<<TXEN|0<<RXCIE|0<<TXCIE; //—Ä–∞–∑—Ä–µ—à–∞–µ–º —Ä–∞–±–æ—Ç—ã USART, –ø–æ–¥–∫–ª—é—á–∞–µ–º –ø—Ä–∏–µ–º–æ–ø–µ—Ä–µ–¥–∞—Ç—á–∏–∫ –∫ –Ω–æ–≥–∞–º, –ø–æ–∫–∞ –∑–∞–ø—Ä–µ—â–∞–µ–º –ø–µ—Ä—Ä—ã–≤–∞–Ω–∏—è
	UCSRC = 1<<URSEL|1<<UCSZ0|1<<UCSZ1;//–ø–µ—Ä–µ–¥–∞—á–∞ 8 –±–∏—Ç, —Å—Ç–∞–Ω–¥–∞—Ä—Ç–Ω–∞—è (—á–µ—Ç–Ω–æ—Å—Ç—å —Ç–∞–º, —Ç–æ–ø –±–∏—Ç—ã)
	*/
	
	//noise_level_value=ADC_init();
	pid_Init(P_FACTOR,I_FACTOR,D_FACTOR, pid_reg_st);
     c84:	80 91 84 00 	lds	r24, 0x0084
     c88:	90 91 85 00 	lds	r25, 0x0085
     c8c:	9c 01       	movw	r18, r24
     c8e:	40 e0       	ldi	r20, 0x00	; 0
     c90:	50 e0       	ldi	r21, 0x00	; 0
     c92:	60 e0       	ldi	r22, 0x00	; 0
     c94:	70 e0       	ldi	r23, 0x00	; 0
     c96:	82 e0       	ldi	r24, 0x02	; 2
     c98:	90 e0       	ldi	r25, 0x00	; 0
     c9a:	32 d0       	rcall	.+100    	; 0xd00 <pid_Init>
		
	PT_INIT(&SegDyn_pt);
     c9c:	10 92 7b 00 	sts	0x007B, r1
     ca0:	10 92 7a 00 	sts	0x007A, r1
	PT_INIT(&EncoderButton_pt);
     ca4:	10 92 7f 00 	sts	0x007F, r1
     ca8:	10 92 7e 00 	sts	0x007E, r1
	PT_INIT(&EncoderScan_pt);
     cac:	10 92 7d 00 	sts	0x007D, r1
     cb0:	10 92 7c 00 	sts	0x007C, r1
	PT_INIT(&Adc_pt);
     cb4:	10 92 81 00 	sts	0x0081, r1
     cb8:	10 92 80 00 	sts	0x0080, r1
	PT_INIT(&LcdSwitch_pt);
     cbc:	10 92 83 00 	sts	0x0083, r1
     cc0:	10 92 82 00 	sts	0x0082, r1
	//PT_INIT(&CurrentCalc_pt);
	//PT_INIT(&PID_LD_CURR_pt);
	
	wdt_reset(); //—Å–±—Ä–∞—Å—ã–≤–∞–µ–º —Å–æ–±–∞–∫—É –Ω–∞ –≤—Å—è–∫–∏–π –ø–æ–∂–∞—Ä–Ω—ã–π
     cc4:	a8 95       	wdr
				"out __SREG__,__tmp_reg__" "\n\t"
				"out %0, %2" "\n \t"
				: /* no outputs */
				: "I" (_SFR_IO_ADDR(_WD_CONTROL_REG)),
				"r" ((uint8_t)(_BV(_WD_CHANGE_BIT) | _BV(WDE))),
				"r" ((uint8_t) ((value & 0x08 ? _WD_PS3_MASK : 0x00) |
     cc6:	87 e0       	ldi	r24, 0x07	; 7
     cc8:	87 70       	andi	r24, 0x07	; 7
     cca:	88 60       	ori	r24, 0x08	; 8
     ccc:	98 2f       	mov	r25, r24
__attribute__ ((__always_inline__))
void wdt_enable (const uint8_t value)
{
	if (_SFR_IO_REG_P (_WD_CONTROL_REG))
	{
		__asm__ __volatile__ (
     cce:	88 e1       	ldi	r24, 0x18	; 24
     cd0:	0f b6       	in	r0, 0x3f	; 63
     cd2:	f8 94       	cli
     cd4:	a8 95       	wdr
     cd6:	81 bd       	out	0x21, r24	; 33
     cd8:	0f be       	out	0x3f, r0	; 63
     cda:	91 bd       	out	0x21, r25	; 33
	wdt_enable(WDTO_2S); //–∑–∞–ø—É—Å–∫–∞–µ–º —Å–æ–±–∞–∫—É —Å –ø–µ—Ä–∏–¥–æ–º 2—Å
	
	sei();
     cdc:	78 94       	sei
	//ADCSRA|=(_BV(7));
	//UDR = ADC_values[0];		// –û—Ç–ø—Ä–∞–≤–ª—è–µ–º –±–∞–π—Ç
	//UCSRB|=(1<<UDRIE);	// –†–∞–∑—Ä–µ—à–∞–µ–º –ø—Ä–µ—Ä—ã–≤–∞–Ω–∏–µ UDRE
    while(1)
    {
		SegDyn(&SegDyn_pt);
     cde:	8a e7       	ldi	r24, 0x7A	; 122
     ce0:	90 e0       	ldi	r25, 0x00	; 0
     ce2:	e5 d9       	rcall	.-3126   	; 0xae <SegDyn>
		EncoderButton(&EncoderButton_pt);
     ce4:	8e e7       	ldi	r24, 0x7E	; 126
     ce6:	90 e0       	ldi	r25, 0x00	; 0
     ce8:	59 db       	rcall	.-2382   	; 0x39c <EncoderButton>
		EncoderScan(&EncoderScan_pt);
     cea:	8c e7       	ldi	r24, 0x7C	; 124
     cec:	90 e0       	ldi	r25, 0x00	; 0
     cee:	b0 da       	rcall	.-2720   	; 0x250 <EncoderScan>
		Adc(&Adc_pt);
     cf0:	80 e8       	ldi	r24, 0x80	; 128
     cf2:	90 e0       	ldi	r25, 0x00	; 0
     cf4:	70 dd       	rcall	.-1312   	; 0x7d6 <Adc>
		LcdSwitch(&LcdSwitch_pt);
     cf6:	82 e8       	ldi	r24, 0x82	; 130
     cf8:	90 e0       	ldi	r25, 0x00	; 0
     cfa:	18 de       	rcall	.-976    	; 0x92c <LcdSwitch>
		wdt_reset(); //–ø–µ—Ä–µ–æ–¥–∏—á–µ—Å–∫–∏ —Å–±—Ä–∞—Å—ã–≤–∞–µ–º —Å–æ–±–∞–∫—É —á—Ç–æ–±—ã –Ω–µ —É–ª–µ—Ç–µ—Ç–µ—Ç—å –≤ —Ä–µ—Å–µ—Ç
     cfc:	a8 95       	wdr
	 }
     cfe:	ef cf       	rjmp	.-34     	; 0xcde <main+0x126>

00000d00 <pid_Init>:
 *  \param d_factor  Derivate term.
 *  \param pid  Struct with PID status.
 */
void pid_Init(int16_t p_factor, int16_t i_factor, int16_t d_factor, struct PID_DATA *pid)
// Set up PID controller parameters
{
     d00:	cf 93       	push	r28
     d02:	df 93       	push	r29
     d04:	cd b7       	in	r28, 0x3d	; 61
     d06:	de b7       	in	r29, 0x3e	; 62
     d08:	2e 97       	sbiw	r28, 0x0e	; 14
     d0a:	0f b6       	in	r0, 0x3f	; 63
     d0c:	f8 94       	cli
     d0e:	de bf       	out	0x3e, r29	; 62
     d10:	0f be       	out	0x3f, r0	; 63
     d12:	cd bf       	out	0x3d, r28	; 61
     d14:	9a 83       	std	Y+2, r25	; 0x02
     d16:	89 83       	std	Y+1, r24	; 0x01
     d18:	7c 83       	std	Y+4, r23	; 0x04
     d1a:	6b 83       	std	Y+3, r22	; 0x03
     d1c:	5e 83       	std	Y+6, r21	; 0x06
     d1e:	4d 83       	std	Y+5, r20	; 0x05
     d20:	38 87       	std	Y+8, r19	; 0x08
     d22:	2f 83       	std	Y+7, r18	; 0x07
  // Start values for PID controller
  pid->sumError = 0;
     d24:	8f 81       	ldd	r24, Y+7	; 0x07
     d26:	98 85       	ldd	r25, Y+8	; 0x08
     d28:	fc 01       	movw	r30, r24
     d2a:	12 82       	std	Z+2, r1	; 0x02
     d2c:	13 82       	std	Z+3, r1	; 0x03
     d2e:	14 82       	std	Z+4, r1	; 0x04
     d30:	15 82       	std	Z+5, r1	; 0x05
  pid->lastProcessValue = 0;
     d32:	8f 81       	ldd	r24, Y+7	; 0x07
     d34:	98 85       	ldd	r25, Y+8	; 0x08
     d36:	fc 01       	movw	r30, r24
     d38:	11 82       	std	Z+1, r1	; 0x01
     d3a:	10 82       	st	Z, r1
  // Tuning constants for PID loop
  pid->P_Factor = p_factor;
     d3c:	8f 81       	ldd	r24, Y+7	; 0x07
     d3e:	98 85       	ldd	r25, Y+8	; 0x08
     d40:	29 81       	ldd	r18, Y+1	; 0x01
     d42:	3a 81       	ldd	r19, Y+2	; 0x02
     d44:	fc 01       	movw	r30, r24
     d46:	37 83       	std	Z+7, r19	; 0x07
     d48:	26 83       	std	Z+6, r18	; 0x06
  pid->I_Factor = i_factor;
     d4a:	8f 81       	ldd	r24, Y+7	; 0x07
     d4c:	98 85       	ldd	r25, Y+8	; 0x08
     d4e:	2b 81       	ldd	r18, Y+3	; 0x03
     d50:	3c 81       	ldd	r19, Y+4	; 0x04
     d52:	fc 01       	movw	r30, r24
     d54:	31 87       	std	Z+9, r19	; 0x09
     d56:	20 87       	std	Z+8, r18	; 0x08
  pid->D_Factor = d_factor;
     d58:	8f 81       	ldd	r24, Y+7	; 0x07
     d5a:	98 85       	ldd	r25, Y+8	; 0x08
     d5c:	2d 81       	ldd	r18, Y+5	; 0x05
     d5e:	3e 81       	ldd	r19, Y+6	; 0x06
     d60:	fc 01       	movw	r30, r24
     d62:	33 87       	std	Z+11, r19	; 0x0b
     d64:	22 87       	std	Z+10, r18	; 0x0a
  // Limits to avoid overflow
  pid->maxError = MAX_INT / (pid->P_Factor + 1);
     d66:	8f 81       	ldd	r24, Y+7	; 0x07
     d68:	98 85       	ldd	r25, Y+8	; 0x08
     d6a:	fc 01       	movw	r30, r24
     d6c:	86 81       	ldd	r24, Z+6	; 0x06
     d6e:	97 81       	ldd	r25, Z+7	; 0x07
     d70:	9c 01       	movw	r18, r24
     d72:	2f 5f       	subi	r18, 0xFF	; 255
     d74:	3f 4f       	sbci	r19, 0xFF	; 255
     d76:	8f ef       	ldi	r24, 0xFF	; 255
     d78:	9f e7       	ldi	r25, 0x7F	; 127
     d7a:	b9 01       	movw	r22, r18
     d7c:	1b d2       	rcall	.+1078   	; 0x11b4 <__divmodhi4>
     d7e:	cb 01       	movw	r24, r22
     d80:	9c 01       	movw	r18, r24
     d82:	8f 81       	ldd	r24, Y+7	; 0x07
     d84:	98 85       	ldd	r25, Y+8	; 0x08
     d86:	fc 01       	movw	r30, r24
     d88:	35 87       	std	Z+13, r19	; 0x0d
     d8a:	24 87       	std	Z+12, r18	; 0x0c
  pid->maxSumError = MAX_I_TERM / (pid->I_Factor + 1);
     d8c:	8f 81       	ldd	r24, Y+7	; 0x07
     d8e:	98 85       	ldd	r25, Y+8	; 0x08
     d90:	fc 01       	movw	r30, r24
     d92:	80 85       	ldd	r24, Z+8	; 0x08
     d94:	91 85       	ldd	r25, Z+9	; 0x09
     d96:	01 96       	adiw	r24, 0x01	; 1
     d98:	9c 01       	movw	r18, r24
     d9a:	99 0f       	add	r25, r25
     d9c:	44 0b       	sbc	r20, r20
     d9e:	55 0b       	sbc	r21, r21
     da0:	8f ef       	ldi	r24, 0xFF	; 255
     da2:	9f ef       	ldi	r25, 0xFF	; 255
     da4:	af ef       	ldi	r26, 0xFF	; 255
     da6:	bf e3       	ldi	r27, 0x3F	; 63
     da8:	bc 01       	movw	r22, r24
     daa:	cd 01       	movw	r24, r26
     dac:	16 d2       	rcall	.+1068   	; 0x11da <__divmodsi4>
     dae:	da 01       	movw	r26, r20
     db0:	c9 01       	movw	r24, r18
     db2:	2f 81       	ldd	r18, Y+7	; 0x07
     db4:	38 85       	ldd	r19, Y+8	; 0x08
     db6:	f9 01       	movw	r30, r18
     db8:	86 87       	std	Z+14, r24	; 0x0e
     dba:	97 87       	std	Z+15, r25	; 0x0f
     dbc:	a0 8b       	std	Z+16, r26	; 0x10
     dbe:	b1 8b       	std	Z+17, r27	; 0x11
}
     dc0:	2e 96       	adiw	r28, 0x0e	; 14
     dc2:	0f b6       	in	r0, 0x3f	; 63
     dc4:	f8 94       	cli
     dc6:	de bf       	out	0x3e, r29	; 62
     dc8:	0f be       	out	0x3f, r0	; 63
     dca:	cd bf       	out	0x3d, r28	; 61
     dcc:	df 91       	pop	r29
     dce:	cf 91       	pop	r28
     dd0:	08 95       	ret

00000dd2 <pid_Controller>:
 *  \param setPoint  Desired value.
 *  \param processValue  Measured value.
 *  \param pid_st  PID status struct.
 */
int16_t pid_Controller(int16_t setPoint, int16_t processValue, struct PID_DATA *pid_st)
{
     dd2:	cf 93       	push	r28
     dd4:	df 93       	push	r29
     dd6:	cd b7       	in	r28, 0x3d	; 61
     dd8:	de b7       	in	r29, 0x3e	; 62
     dda:	68 97       	sbiw	r28, 0x18	; 24
     ddc:	0f b6       	in	r0, 0x3f	; 63
     dde:	f8 94       	cli
     de0:	de bf       	out	0x3e, r29	; 62
     de2:	0f be       	out	0x3f, r0	; 63
     de4:	cd bf       	out	0x3d, r28	; 61
     de6:	9c 8b       	std	Y+20, r25	; 0x14
     de8:	8b 8b       	std	Y+19, r24	; 0x13
     dea:	7e 8b       	std	Y+22, r23	; 0x16
     dec:	6d 8b       	std	Y+21, r22	; 0x15
     dee:	58 8f       	std	Y+24, r21	; 0x18
     df0:	4f 8b       	std	Y+23, r20	; 0x17
  int16_t error, p_term, d_term;
  int32_t i_term, ret, temp;

  error = setPoint - processValue;
     df2:	2b 89       	ldd	r18, Y+19	; 0x13
     df4:	3c 89       	ldd	r19, Y+20	; 0x14
     df6:	8d 89       	ldd	r24, Y+21	; 0x15
     df8:	9e 89       	ldd	r25, Y+22	; 0x16
     dfa:	a9 01       	movw	r20, r18
     dfc:	48 1b       	sub	r20, r24
     dfe:	59 0b       	sbc	r21, r25
     e00:	ca 01       	movw	r24, r20
     e02:	9c 87       	std	Y+12, r25	; 0x0c
     e04:	8b 87       	std	Y+11, r24	; 0x0b

  // Calculate Pterm and limit error overflow
  if (error > pid_st->maxError){
     e06:	8f 89       	ldd	r24, Y+23	; 0x17
     e08:	98 8d       	ldd	r25, Y+24	; 0x18
     e0a:	fc 01       	movw	r30, r24
     e0c:	24 85       	ldd	r18, Z+12	; 0x0c
     e0e:	35 85       	ldd	r19, Z+13	; 0x0d
     e10:	8b 85       	ldd	r24, Y+11	; 0x0b
     e12:	9c 85       	ldd	r25, Y+12	; 0x0c
     e14:	28 17       	cp	r18, r24
     e16:	39 07       	cpc	r19, r25
     e18:	2c f4       	brge	.+10     	; 0xe24 <pid_Controller+0x52>
    p_term = MAX_INT;
     e1a:	8f ef       	ldi	r24, 0xFF	; 255
     e1c:	9f e7       	ldi	r25, 0x7F	; 127
     e1e:	9a 83       	std	Y+2, r25	; 0x02
     e20:	89 83       	std	Y+1, r24	; 0x01
     e22:	23 c0       	rjmp	.+70     	; 0xe6a <pid_Controller+0x98>
  }
  else if (error < -pid_st->maxError){
     e24:	8f 89       	ldd	r24, Y+23	; 0x17
     e26:	98 8d       	ldd	r25, Y+24	; 0x18
     e28:	fc 01       	movw	r30, r24
     e2a:	84 85       	ldd	r24, Z+12	; 0x0c
     e2c:	95 85       	ldd	r25, Z+13	; 0x0d
     e2e:	22 27       	eor	r18, r18
     e30:	33 27       	eor	r19, r19
     e32:	28 1b       	sub	r18, r24
     e34:	39 0b       	sbc	r19, r25
     e36:	8b 85       	ldd	r24, Y+11	; 0x0b
     e38:	9c 85       	ldd	r25, Y+12	; 0x0c
     e3a:	82 17       	cp	r24, r18
     e3c:	93 07       	cpc	r25, r19
     e3e:	2c f4       	brge	.+10     	; 0xe4a <pid_Controller+0x78>
    p_term = -MAX_INT;
     e40:	81 e0       	ldi	r24, 0x01	; 1
     e42:	90 e8       	ldi	r25, 0x80	; 128
     e44:	9a 83       	std	Y+2, r25	; 0x02
     e46:	89 83       	std	Y+1, r24	; 0x01
     e48:	10 c0       	rjmp	.+32     	; 0xe6a <pid_Controller+0x98>
  }
  else{
    p_term = pid_st->P_Factor * error;
     e4a:	8f 89       	ldd	r24, Y+23	; 0x17
     e4c:	98 8d       	ldd	r25, Y+24	; 0x18
     e4e:	fc 01       	movw	r30, r24
     e50:	46 81       	ldd	r20, Z+6	; 0x06
     e52:	57 81       	ldd	r21, Z+7	; 0x07
     e54:	2b 85       	ldd	r18, Y+11	; 0x0b
     e56:	3c 85       	ldd	r19, Y+12	; 0x0c
     e58:	42 9f       	mul	r20, r18
     e5a:	c0 01       	movw	r24, r0
     e5c:	43 9f       	mul	r20, r19
     e5e:	90 0d       	add	r25, r0
     e60:	52 9f       	mul	r21, r18
     e62:	90 0d       	add	r25, r0
     e64:	11 24       	eor	r1, r1
     e66:	9a 83       	std	Y+2, r25	; 0x02
     e68:	89 83       	std	Y+1, r24	; 0x01
  }

  // Calculate Iterm and limit integral runaway
  temp = pid_st->sumError + error;
     e6a:	8f 89       	ldd	r24, Y+23	; 0x17
     e6c:	98 8d       	ldd	r25, Y+24	; 0x18
     e6e:	fc 01       	movw	r30, r24
     e70:	22 81       	ldd	r18, Z+2	; 0x02
     e72:	33 81       	ldd	r19, Z+3	; 0x03
     e74:	44 81       	ldd	r20, Z+4	; 0x04
     e76:	55 81       	ldd	r21, Z+5	; 0x05
     e78:	8b 85       	ldd	r24, Y+11	; 0x0b
     e7a:	9c 85       	ldd	r25, Y+12	; 0x0c
     e7c:	09 2e       	mov	r0, r25
     e7e:	00 0c       	add	r0, r0
     e80:	aa 0b       	sbc	r26, r26
     e82:	bb 0b       	sbc	r27, r27
     e84:	82 0f       	add	r24, r18
     e86:	93 1f       	adc	r25, r19
     e88:	a4 1f       	adc	r26, r20
     e8a:	b5 1f       	adc	r27, r21
     e8c:	8d 87       	std	Y+13, r24	; 0x0d
     e8e:	9e 87       	std	Y+14, r25	; 0x0e
     e90:	af 87       	std	Y+15, r26	; 0x0f
     e92:	b8 8b       	std	Y+16, r27	; 0x10
  if(temp > pid_st->maxSumError){
     e94:	8f 89       	ldd	r24, Y+23	; 0x17
     e96:	98 8d       	ldd	r25, Y+24	; 0x18
     e98:	fc 01       	movw	r30, r24
     e9a:	26 85       	ldd	r18, Z+14	; 0x0e
     e9c:	37 85       	ldd	r19, Z+15	; 0x0f
     e9e:	40 89       	ldd	r20, Z+16	; 0x10
     ea0:	51 89       	ldd	r21, Z+17	; 0x11
     ea2:	8d 85       	ldd	r24, Y+13	; 0x0d
     ea4:	9e 85       	ldd	r25, Y+14	; 0x0e
     ea6:	af 85       	ldd	r26, Y+15	; 0x0f
     ea8:	b8 89       	ldd	r27, Y+16	; 0x10
     eaa:	28 17       	cp	r18, r24
     eac:	39 07       	cpc	r19, r25
     eae:	4a 07       	cpc	r20, r26
     eb0:	5b 07       	cpc	r21, r27
     eb2:	bc f4       	brge	.+46     	; 0xee2 <pid_Controller+0x110>
    i_term = MAX_I_TERM;
     eb4:	8f ef       	ldi	r24, 0xFF	; 255
     eb6:	9f ef       	ldi	r25, 0xFF	; 255
     eb8:	af ef       	ldi	r26, 0xFF	; 255
     eba:	bf e3       	ldi	r27, 0x3F	; 63
     ebc:	8b 83       	std	Y+3, r24	; 0x03
     ebe:	9c 83       	std	Y+4, r25	; 0x04
     ec0:	ad 83       	std	Y+5, r26	; 0x05
     ec2:	be 83       	std	Y+6, r27	; 0x06
    pid_st->sumError = pid_st->maxSumError;
     ec4:	8f 89       	ldd	r24, Y+23	; 0x17
     ec6:	98 8d       	ldd	r25, Y+24	; 0x18
     ec8:	fc 01       	movw	r30, r24
     eca:	86 85       	ldd	r24, Z+14	; 0x0e
     ecc:	97 85       	ldd	r25, Z+15	; 0x0f
     ece:	a0 89       	ldd	r26, Z+16	; 0x10
     ed0:	b1 89       	ldd	r27, Z+17	; 0x11
     ed2:	2f 89       	ldd	r18, Y+23	; 0x17
     ed4:	38 8d       	ldd	r19, Y+24	; 0x18
     ed6:	f9 01       	movw	r30, r18
     ed8:	82 83       	std	Z+2, r24	; 0x02
     eda:	93 83       	std	Z+3, r25	; 0x03
     edc:	a4 83       	std	Z+4, r26	; 0x04
     ede:	b5 83       	std	Z+5, r27	; 0x05
     ee0:	59 c0       	rjmp	.+178    	; 0xf94 <pid_Controller+0x1c2>
  }
  else if(temp < -pid_st->maxSumError){
     ee2:	8f 89       	ldd	r24, Y+23	; 0x17
     ee4:	98 8d       	ldd	r25, Y+24	; 0x18
     ee6:	fc 01       	movw	r30, r24
     ee8:	86 85       	ldd	r24, Z+14	; 0x0e
     eea:	97 85       	ldd	r25, Z+15	; 0x0f
     eec:	a0 89       	ldd	r26, Z+16	; 0x10
     eee:	b1 89       	ldd	r27, Z+17	; 0x11
     ef0:	22 27       	eor	r18, r18
     ef2:	33 27       	eor	r19, r19
     ef4:	a9 01       	movw	r20, r18
     ef6:	28 1b       	sub	r18, r24
     ef8:	39 0b       	sbc	r19, r25
     efa:	4a 0b       	sbc	r20, r26
     efc:	5b 0b       	sbc	r21, r27
     efe:	8d 85       	ldd	r24, Y+13	; 0x0d
     f00:	9e 85       	ldd	r25, Y+14	; 0x0e
     f02:	af 85       	ldd	r26, Y+15	; 0x0f
     f04:	b8 89       	ldd	r27, Y+16	; 0x10
     f06:	82 17       	cp	r24, r18
     f08:	93 07       	cpc	r25, r19
     f0a:	a4 07       	cpc	r26, r20
     f0c:	b5 07       	cpc	r27, r21
     f0e:	f4 f4       	brge	.+60     	; 0xf4c <pid_Controller+0x17a>
    i_term = -MAX_I_TERM;
     f10:	81 e0       	ldi	r24, 0x01	; 1
     f12:	90 e0       	ldi	r25, 0x00	; 0
     f14:	a0 e0       	ldi	r26, 0x00	; 0
     f16:	b0 ec       	ldi	r27, 0xC0	; 192
     f18:	8b 83       	std	Y+3, r24	; 0x03
     f1a:	9c 83       	std	Y+4, r25	; 0x04
     f1c:	ad 83       	std	Y+5, r26	; 0x05
     f1e:	be 83       	std	Y+6, r27	; 0x06
    pid_st->sumError = -pid_st->maxSumError;
     f20:	8f 89       	ldd	r24, Y+23	; 0x17
     f22:	98 8d       	ldd	r25, Y+24	; 0x18
     f24:	fc 01       	movw	r30, r24
     f26:	86 85       	ldd	r24, Z+14	; 0x0e
     f28:	97 85       	ldd	r25, Z+15	; 0x0f
     f2a:	a0 89       	ldd	r26, Z+16	; 0x10
     f2c:	b1 89       	ldd	r27, Z+17	; 0x11
     f2e:	b0 95       	com	r27
     f30:	a0 95       	com	r26
     f32:	90 95       	com	r25
     f34:	81 95       	neg	r24
     f36:	9f 4f       	sbci	r25, 0xFF	; 255
     f38:	af 4f       	sbci	r26, 0xFF	; 255
     f3a:	bf 4f       	sbci	r27, 0xFF	; 255
     f3c:	2f 89       	ldd	r18, Y+23	; 0x17
     f3e:	38 8d       	ldd	r19, Y+24	; 0x18
     f40:	f9 01       	movw	r30, r18
     f42:	82 83       	std	Z+2, r24	; 0x02
     f44:	93 83       	std	Z+3, r25	; 0x03
     f46:	a4 83       	std	Z+4, r26	; 0x04
     f48:	b5 83       	std	Z+5, r27	; 0x05
     f4a:	24 c0       	rjmp	.+72     	; 0xf94 <pid_Controller+0x1c2>
  }
  else{
    pid_st->sumError = temp;
     f4c:	2f 89       	ldd	r18, Y+23	; 0x17
     f4e:	38 8d       	ldd	r19, Y+24	; 0x18
     f50:	8d 85       	ldd	r24, Y+13	; 0x0d
     f52:	9e 85       	ldd	r25, Y+14	; 0x0e
     f54:	af 85       	ldd	r26, Y+15	; 0x0f
     f56:	b8 89       	ldd	r27, Y+16	; 0x10
     f58:	f9 01       	movw	r30, r18
     f5a:	82 83       	std	Z+2, r24	; 0x02
     f5c:	93 83       	std	Z+3, r25	; 0x03
     f5e:	a4 83       	std	Z+4, r26	; 0x04
     f60:	b5 83       	std	Z+5, r27	; 0x05
    i_term = pid_st->I_Factor * pid_st->sumError;
     f62:	8f 89       	ldd	r24, Y+23	; 0x17
     f64:	98 8d       	ldd	r25, Y+24	; 0x18
     f66:	fc 01       	movw	r30, r24
     f68:	80 85       	ldd	r24, Z+8	; 0x08
     f6a:	91 85       	ldd	r25, Z+9	; 0x09
     f6c:	9c 01       	movw	r18, r24
     f6e:	99 0f       	add	r25, r25
     f70:	44 0b       	sbc	r20, r20
     f72:	55 0b       	sbc	r21, r21
     f74:	8f 89       	ldd	r24, Y+23	; 0x17
     f76:	98 8d       	ldd	r25, Y+24	; 0x18
     f78:	fc 01       	movw	r30, r24
     f7a:	82 81       	ldd	r24, Z+2	; 0x02
     f7c:	93 81       	ldd	r25, Z+3	; 0x03
     f7e:	a4 81       	ldd	r26, Z+4	; 0x04
     f80:	b5 81       	ldd	r27, Z+5	; 0x05
     f82:	bc 01       	movw	r22, r24
     f84:	cd 01       	movw	r24, r26
     f86:	07 d1       	rcall	.+526    	; 0x1196 <__mulsi3>
     f88:	dc 01       	movw	r26, r24
     f8a:	cb 01       	movw	r24, r22
     f8c:	8b 83       	std	Y+3, r24	; 0x03
     f8e:	9c 83       	std	Y+4, r25	; 0x04
     f90:	ad 83       	std	Y+5, r26	; 0x05
     f92:	be 83       	std	Y+6, r27	; 0x06
  }

  // Calculate Dterm
  d_term = pid_st->D_Factor * (pid_st->lastProcessValue - processValue);
     f94:	8f 89       	ldd	r24, Y+23	; 0x17
     f96:	98 8d       	ldd	r25, Y+24	; 0x18
     f98:	fc 01       	movw	r30, r24
     f9a:	42 85       	ldd	r20, Z+10	; 0x0a
     f9c:	53 85       	ldd	r21, Z+11	; 0x0b
     f9e:	8f 89       	ldd	r24, Y+23	; 0x17
     fa0:	98 8d       	ldd	r25, Y+24	; 0x18
     fa2:	fc 01       	movw	r30, r24
     fa4:	20 81       	ld	r18, Z
     fa6:	31 81       	ldd	r19, Z+1	; 0x01
     fa8:	8d 89       	ldd	r24, Y+21	; 0x15
     faa:	9e 89       	ldd	r25, Y+22	; 0x16
     fac:	28 1b       	sub	r18, r24
     fae:	39 0b       	sbc	r19, r25
     fb0:	42 9f       	mul	r20, r18
     fb2:	c0 01       	movw	r24, r0
     fb4:	43 9f       	mul	r20, r19
     fb6:	90 0d       	add	r25, r0
     fb8:	52 9f       	mul	r21, r18
     fba:	90 0d       	add	r25, r0
     fbc:	11 24       	eor	r1, r1
     fbe:	9a 8b       	std	Y+18, r25	; 0x12
     fc0:	89 8b       	std	Y+17, r24	; 0x11

  pid_st->lastProcessValue = processValue;
     fc2:	8f 89       	ldd	r24, Y+23	; 0x17
     fc4:	98 8d       	ldd	r25, Y+24	; 0x18
     fc6:	2d 89       	ldd	r18, Y+21	; 0x15
     fc8:	3e 89       	ldd	r19, Y+22	; 0x16
     fca:	fc 01       	movw	r30, r24
     fcc:	31 83       	std	Z+1, r19	; 0x01
     fce:	20 83       	st	Z, r18

  ret = (p_term + i_term + d_term) / SCALING_FACTOR;
     fd0:	89 81       	ldd	r24, Y+1	; 0x01
     fd2:	9a 81       	ldd	r25, Y+2	; 0x02
     fd4:	9c 01       	movw	r18, r24
     fd6:	99 0f       	add	r25, r25
     fd8:	44 0b       	sbc	r20, r20
     fda:	55 0b       	sbc	r21, r21
     fdc:	8b 81       	ldd	r24, Y+3	; 0x03
     fde:	9c 81       	ldd	r25, Y+4	; 0x04
     fe0:	ad 81       	ldd	r26, Y+5	; 0x05
     fe2:	be 81       	ldd	r27, Y+6	; 0x06
     fe4:	28 0f       	add	r18, r24
     fe6:	39 1f       	adc	r19, r25
     fe8:	4a 1f       	adc	r20, r26
     fea:	5b 1f       	adc	r21, r27
     fec:	89 89       	ldd	r24, Y+17	; 0x11
     fee:	9a 89       	ldd	r25, Y+18	; 0x12
     ff0:	09 2e       	mov	r0, r25
     ff2:	00 0c       	add	r0, r0
     ff4:	aa 0b       	sbc	r26, r26
     ff6:	bb 0b       	sbc	r27, r27
     ff8:	82 0f       	add	r24, r18
     ffa:	93 1f       	adc	r25, r19
     ffc:	a4 1f       	adc	r26, r20
     ffe:	b5 1f       	adc	r27, r21
    1000:	8f 83       	std	Y+7, r24	; 0x07
    1002:	98 87       	std	Y+8, r25	; 0x08
    1004:	a9 87       	std	Y+9, r26	; 0x09
    1006:	ba 87       	std	Y+10, r27	; 0x0a
  if(ret > MAX_INT){
    1008:	8f 81       	ldd	r24, Y+7	; 0x07
    100a:	98 85       	ldd	r25, Y+8	; 0x08
    100c:	a9 85       	ldd	r26, Y+9	; 0x09
    100e:	ba 85       	ldd	r27, Y+10	; 0x0a
    1010:	81 15       	cp	r24, r1
    1012:	90 48       	sbci	r25, 0x80	; 128
    1014:	a1 05       	cpc	r26, r1
    1016:	b1 05       	cpc	r27, r1
    1018:	4c f0       	brlt	.+18     	; 0x102c <pid_Controller+0x25a>
    ret = MAX_INT;
    101a:	8f ef       	ldi	r24, 0xFF	; 255
    101c:	9f e7       	ldi	r25, 0x7F	; 127
    101e:	a0 e0       	ldi	r26, 0x00	; 0
    1020:	b0 e0       	ldi	r27, 0x00	; 0
    1022:	8f 83       	std	Y+7, r24	; 0x07
    1024:	98 87       	std	Y+8, r25	; 0x08
    1026:	a9 87       	std	Y+9, r26	; 0x09
    1028:	ba 87       	std	Y+10, r27	; 0x0a
    102a:	11 c0       	rjmp	.+34     	; 0x104e <pid_Controller+0x27c>
  }
  else if(ret < -MAX_INT){
    102c:	8f 81       	ldd	r24, Y+7	; 0x07
    102e:	98 85       	ldd	r25, Y+8	; 0x08
    1030:	a9 85       	ldd	r26, Y+9	; 0x09
    1032:	ba 85       	ldd	r27, Y+10	; 0x0a
    1034:	81 30       	cpi	r24, 0x01	; 1
    1036:	90 48       	sbci	r25, 0x80	; 128
    1038:	af 4f       	sbci	r26, 0xFF	; 255
    103a:	bf 4f       	sbci	r27, 0xFF	; 255
    103c:	44 f4       	brge	.+16     	; 0x104e <pid_Controller+0x27c>
    ret = -MAX_INT;
    103e:	81 e0       	ldi	r24, 0x01	; 1
    1040:	90 e8       	ldi	r25, 0x80	; 128
    1042:	af ef       	ldi	r26, 0xFF	; 255
    1044:	bf ef       	ldi	r27, 0xFF	; 255
    1046:	8f 83       	std	Y+7, r24	; 0x07
    1048:	98 87       	std	Y+8, r25	; 0x08
    104a:	a9 87       	std	Y+9, r26	; 0x09
    104c:	ba 87       	std	Y+10, r27	; 0x0a
  }

  return((int16_t)ret);
    104e:	8f 81       	ldd	r24, Y+7	; 0x07
    1050:	98 85       	ldd	r25, Y+8	; 0x08
}
    1052:	68 96       	adiw	r28, 0x18	; 24
    1054:	0f b6       	in	r0, 0x3f	; 63
    1056:	f8 94       	cli
    1058:	de bf       	out	0x3e, r29	; 62
    105a:	0f be       	out	0x3f, r0	; 63
    105c:	cd bf       	out	0x3d, r28	; 61
    105e:	df 91       	pop	r29
    1060:	cf 91       	pop	r28
    1062:	08 95       	ret

00001064 <pid_Reset_Integrator>:
/*! \brief Resets the integrator.
 *
 *  Calling this function will reset the integrator in the PID regulator.
 */
void pid_Reset_Integrator(pidData_t *pid_st)
{
    1064:	cf 93       	push	r28
    1066:	df 93       	push	r29
    1068:	00 d0       	rcall	.+0      	; 0x106a <pid_Reset_Integrator+0x6>
    106a:	cd b7       	in	r28, 0x3d	; 61
    106c:	de b7       	in	r29, 0x3e	; 62
    106e:	9a 83       	std	Y+2, r25	; 0x02
    1070:	89 83       	std	Y+1, r24	; 0x01
  pid_st->sumError = 0;
    1072:	89 81       	ldd	r24, Y+1	; 0x01
    1074:	9a 81       	ldd	r25, Y+2	; 0x02
    1076:	fc 01       	movw	r30, r24
    1078:	12 82       	std	Z+2, r1	; 0x02
    107a:	13 82       	std	Z+3, r1	; 0x03
    107c:	14 82       	std	Z+4, r1	; 0x04
    107e:	15 82       	std	Z+5, r1	; 0x05
}
    1080:	0f 90       	pop	r0
    1082:	0f 90       	pop	r0
    1084:	df 91       	pop	r29
    1086:	cf 91       	pop	r28
    1088:	08 95       	ret

0000108a <__iCliRetVal>:
    sei();
    return 1;
}

static __inline__ uint8_t __iCliRetVal(void)
{
    108a:	cf 93       	push	r28
    108c:	df 93       	push	r29
    108e:	cd b7       	in	r28, 0x3d	; 61
    1090:	de b7       	in	r29, 0x3e	; 62
    cli();
    1092:	f8 94       	cli
    return 1;
    1094:	81 e0       	ldi	r24, 0x01	; 1
}
    1096:	df 91       	pop	r29
    1098:	cf 91       	pop	r28
    109a:	08 95       	ret

0000109c <__iRestore>:
    __asm__ volatile ("" ::: "memory");
    (void)__s;
}

static __inline__ void __iRestore(const  uint8_t *__s)
{
    109c:	cf 93       	push	r28
    109e:	df 93       	push	r29
    10a0:	00 d0       	rcall	.+0      	; 0x10a2 <__iRestore+0x6>
    10a2:	cd b7       	in	r28, 0x3d	; 61
    10a4:	de b7       	in	r29, 0x3e	; 62
    10a6:	9a 83       	std	Y+2, r25	; 0x02
    10a8:	89 83       	std	Y+1, r24	; 0x01
    SREG = *__s;
    10aa:	8f e5       	ldi	r24, 0x5F	; 95
    10ac:	90 e0       	ldi	r25, 0x00	; 0
    10ae:	29 81       	ldd	r18, Y+1	; 0x01
    10b0:	3a 81       	ldd	r19, Y+2	; 0x02
    10b2:	f9 01       	movw	r30, r18
    10b4:	20 81       	ld	r18, Z
    10b6:	fc 01       	movw	r30, r24
    10b8:	20 83       	st	Z, r18
    __asm__ volatile ("" ::: "memory");
}
    10ba:	0f 90       	pop	r0
    10bc:	0f 90       	pop	r0
    10be:	df 91       	pop	r29
    10c0:	cf 91       	pop	r28
    10c2:	08 95       	ret

000010c4 <__vector_9>:
#include <util/atomic.h>

volatile static uint32_t st_timer0_millis;

ISR(TIMER0_OVF_vect)
{
    10c4:	1f 92       	push	r1
    10c6:	0f 92       	push	r0
    10c8:	00 90 5f 00 	lds	r0, 0x005F
    10cc:	0f 92       	push	r0
    10ce:	11 24       	eor	r1, r1
    10d0:	2f 93       	push	r18
    10d2:	8f 93       	push	r24
    10d4:	9f 93       	push	r25
    10d6:	af 93       	push	r26
    10d8:	bf 93       	push	r27
    10da:	ef 93       	push	r30
    10dc:	ff 93       	push	r31
    10de:	cf 93       	push	r28
    10e0:	df 93       	push	r29
    10e2:	cd b7       	in	r28, 0x3d	; 61
    10e4:	de b7       	in	r29, 0x3e	; 62
	st_timer0_millis++;
    10e6:	80 91 8d 00 	lds	r24, 0x008D
    10ea:	90 91 8e 00 	lds	r25, 0x008E
    10ee:	a0 91 8f 00 	lds	r26, 0x008F
    10f2:	b0 91 90 00 	lds	r27, 0x0090
    10f6:	01 96       	adiw	r24, 0x01	; 1
    10f8:	a1 1d       	adc	r26, r1
    10fa:	b1 1d       	adc	r27, r1
    10fc:	80 93 8d 00 	sts	0x008D, r24
    1100:	90 93 8e 00 	sts	0x008E, r25
    1104:	a0 93 8f 00 	sts	0x008F, r26
    1108:	b0 93 90 00 	sts	0x0090, r27
	TCNT0 = ST_CTC_HANDMADE;
    110c:	82 e5       	ldi	r24, 0x52	; 82
    110e:	90 e0       	ldi	r25, 0x00	; 0
    1110:	22 e8       	ldi	r18, 0x82	; 130
    1112:	fc 01       	movw	r30, r24
    1114:	20 83       	st	Z, r18
}
    1116:	df 91       	pop	r29
    1118:	cf 91       	pop	r28
    111a:	ff 91       	pop	r31
    111c:	ef 91       	pop	r30
    111e:	bf 91       	pop	r27
    1120:	af 91       	pop	r26
    1122:	9f 91       	pop	r25
    1124:	8f 91       	pop	r24
    1126:	2f 91       	pop	r18
    1128:	0f 90       	pop	r0
    112a:	00 92 5f 00 	sts	0x005F, r0
    112e:	0f 90       	pop	r0
    1130:	1f 90       	pop	r1
    1132:	18 95       	reti

00001134 <st_millis>:

uint32_t st_millis(void)
{
    1134:	cf 93       	push	r28
    1136:	df 93       	push	r29
    1138:	00 d0       	rcall	.+0      	; 0x113a <st_millis+0x6>
    113a:	00 d0       	rcall	.+0      	; 0x113c <st_millis+0x8>
    113c:	00 d0       	rcall	.+0      	; 0x113e <st_millis+0xa>
    113e:	cd b7       	in	r28, 0x3d	; 61
    1140:	de b7       	in	r29, 0x3e	; 62
	uint32_t m;

	ATOMIC_BLOCK(ATOMIC_RESTORESTATE)
    1142:	8f e5       	ldi	r24, 0x5F	; 95
    1144:	90 e0       	ldi	r25, 0x00	; 0
    1146:	fc 01       	movw	r30, r24
    1148:	80 81       	ld	r24, Z
    114a:	8e 83       	std	Y+6, r24	; 0x06
    114c:	9e df       	rcall	.-196    	; 0x108a <__iCliRetVal>
    114e:	8d 83       	std	Y+5, r24	; 0x05
    1150:	0d c0       	rjmp	.+26     	; 0x116c <st_millis+0x38>
	{
		m = st_timer0_millis;
    1152:	80 91 8d 00 	lds	r24, 0x008D
    1156:	90 91 8e 00 	lds	r25, 0x008E
    115a:	a0 91 8f 00 	lds	r26, 0x008F
    115e:	b0 91 90 00 	lds	r27, 0x0090
    1162:	89 83       	std	Y+1, r24	; 0x01
    1164:	9a 83       	std	Y+2, r25	; 0x02
    1166:	ab 83       	std	Y+3, r26	; 0x03
    1168:	bc 83       	std	Y+4, r27	; 0x04

uint32_t st_millis(void)
{
	uint32_t m;

	ATOMIC_BLOCK(ATOMIC_RESTORESTATE)
    116a:	1d 82       	std	Y+5, r1	; 0x05
    116c:	8d 81       	ldd	r24, Y+5	; 0x05
    116e:	88 23       	and	r24, r24
    1170:	81 f7       	brne	.-32     	; 0x1152 <st_millis+0x1e>
    1172:	ce 01       	movw	r24, r28
    1174:	06 96       	adiw	r24, 0x06	; 6
    1176:	92 df       	rcall	.-220    	; 0x109c <__iRestore>
	{
		m = st_timer0_millis;
	}

	return m;
    1178:	89 81       	ldd	r24, Y+1	; 0x01
    117a:	9a 81       	ldd	r25, Y+2	; 0x02
    117c:	ab 81       	ldd	r26, Y+3	; 0x03
    117e:	bc 81       	ldd	r27, Y+4	; 0x04
}
    1180:	bc 01       	movw	r22, r24
    1182:	cd 01       	movw	r24, r26
    1184:	26 96       	adiw	r28, 0x06	; 6
    1186:	0f b6       	in	r0, 0x3f	; 63
    1188:	f8 94       	cli
    118a:	de bf       	out	0x3e, r29	; 62
    118c:	0f be       	out	0x3f, r0	; 63
    118e:	cd bf       	out	0x3d, r28	; 61
    1190:	df 91       	pop	r29
    1192:	cf 91       	pop	r28
    1194:	08 95       	ret

00001196 <__mulsi3>:
    1196:	db 01       	movw	r26, r22
    1198:	8f 93       	push	r24
    119a:	9f 93       	push	r25
    119c:	3a d0       	rcall	.+116    	; 0x1212 <__muluhisi3>
    119e:	bf 91       	pop	r27
    11a0:	af 91       	pop	r26
    11a2:	a2 9f       	mul	r26, r18
    11a4:	80 0d       	add	r24, r0
    11a6:	91 1d       	adc	r25, r1
    11a8:	a3 9f       	mul	r26, r19
    11aa:	90 0d       	add	r25, r0
    11ac:	b2 9f       	mul	r27, r18
    11ae:	90 0d       	add	r25, r0
    11b0:	11 24       	eor	r1, r1
    11b2:	08 95       	ret

000011b4 <__divmodhi4>:
    11b4:	97 fb       	bst	r25, 7
    11b6:	07 2e       	mov	r0, r23
    11b8:	16 f4       	brtc	.+4      	; 0x11be <__divmodhi4+0xa>
    11ba:	00 94       	com	r0
    11bc:	06 d0       	rcall	.+12     	; 0x11ca <__divmodhi4_neg1>
    11be:	77 fd       	sbrc	r23, 7
    11c0:	08 d0       	rcall	.+16     	; 0x11d2 <__divmodhi4_neg2>
    11c2:	31 d0       	rcall	.+98     	; 0x1226 <__udivmodhi4>
    11c4:	07 fc       	sbrc	r0, 7
    11c6:	05 d0       	rcall	.+10     	; 0x11d2 <__divmodhi4_neg2>
    11c8:	3e f4       	brtc	.+14     	; 0x11d8 <__divmodhi4_exit>

000011ca <__divmodhi4_neg1>:
    11ca:	90 95       	com	r25
    11cc:	81 95       	neg	r24
    11ce:	9f 4f       	sbci	r25, 0xFF	; 255
    11d0:	08 95       	ret

000011d2 <__divmodhi4_neg2>:
    11d2:	70 95       	com	r23
    11d4:	61 95       	neg	r22
    11d6:	7f 4f       	sbci	r23, 0xFF	; 255

000011d8 <__divmodhi4_exit>:
    11d8:	08 95       	ret

000011da <__divmodsi4>:
    11da:	05 2e       	mov	r0, r21
    11dc:	97 fb       	bst	r25, 7
    11de:	16 f4       	brtc	.+4      	; 0x11e4 <__divmodsi4+0xa>
    11e0:	00 94       	com	r0
    11e2:	0f d0       	rcall	.+30     	; 0x1202 <__negsi2>
    11e4:	57 fd       	sbrc	r21, 7
    11e6:	05 d0       	rcall	.+10     	; 0x11f2 <__divmodsi4_neg2>
    11e8:	32 d0       	rcall	.+100    	; 0x124e <__udivmodsi4>
    11ea:	07 fc       	sbrc	r0, 7
    11ec:	02 d0       	rcall	.+4      	; 0x11f2 <__divmodsi4_neg2>
    11ee:	46 f4       	brtc	.+16     	; 0x1200 <__divmodsi4_exit>
    11f0:	08 c0       	rjmp	.+16     	; 0x1202 <__negsi2>

000011f2 <__divmodsi4_neg2>:
    11f2:	50 95       	com	r21
    11f4:	40 95       	com	r20
    11f6:	30 95       	com	r19
    11f8:	21 95       	neg	r18
    11fa:	3f 4f       	sbci	r19, 0xFF	; 255
    11fc:	4f 4f       	sbci	r20, 0xFF	; 255
    11fe:	5f 4f       	sbci	r21, 0xFF	; 255

00001200 <__divmodsi4_exit>:
    1200:	08 95       	ret

00001202 <__negsi2>:
    1202:	90 95       	com	r25
    1204:	80 95       	com	r24
    1206:	70 95       	com	r23
    1208:	61 95       	neg	r22
    120a:	7f 4f       	sbci	r23, 0xFF	; 255
    120c:	8f 4f       	sbci	r24, 0xFF	; 255
    120e:	9f 4f       	sbci	r25, 0xFF	; 255
    1210:	08 95       	ret

00001212 <__muluhisi3>:
    1212:	3f d0       	rcall	.+126    	; 0x1292 <__umulhisi3>
    1214:	a5 9f       	mul	r26, r21
    1216:	90 0d       	add	r25, r0
    1218:	b4 9f       	mul	r27, r20
    121a:	90 0d       	add	r25, r0
    121c:	a4 9f       	mul	r26, r20
    121e:	80 0d       	add	r24, r0
    1220:	91 1d       	adc	r25, r1
    1222:	11 24       	eor	r1, r1
    1224:	08 95       	ret

00001226 <__udivmodhi4>:
    1226:	aa 1b       	sub	r26, r26
    1228:	bb 1b       	sub	r27, r27
    122a:	51 e1       	ldi	r21, 0x11	; 17
    122c:	07 c0       	rjmp	.+14     	; 0x123c <__udivmodhi4_ep>

0000122e <__udivmodhi4_loop>:
    122e:	aa 1f       	adc	r26, r26
    1230:	bb 1f       	adc	r27, r27
    1232:	a6 17       	cp	r26, r22
    1234:	b7 07       	cpc	r27, r23
    1236:	10 f0       	brcs	.+4      	; 0x123c <__udivmodhi4_ep>
    1238:	a6 1b       	sub	r26, r22
    123a:	b7 0b       	sbc	r27, r23

0000123c <__udivmodhi4_ep>:
    123c:	88 1f       	adc	r24, r24
    123e:	99 1f       	adc	r25, r25
    1240:	5a 95       	dec	r21
    1242:	a9 f7       	brne	.-22     	; 0x122e <__udivmodhi4_loop>
    1244:	80 95       	com	r24
    1246:	90 95       	com	r25
    1248:	bc 01       	movw	r22, r24
    124a:	cd 01       	movw	r24, r26
    124c:	08 95       	ret

0000124e <__udivmodsi4>:
    124e:	a1 e2       	ldi	r26, 0x21	; 33
    1250:	1a 2e       	mov	r1, r26
    1252:	aa 1b       	sub	r26, r26
    1254:	bb 1b       	sub	r27, r27
    1256:	fd 01       	movw	r30, r26
    1258:	0d c0       	rjmp	.+26     	; 0x1274 <__udivmodsi4_ep>

0000125a <__udivmodsi4_loop>:
    125a:	aa 1f       	adc	r26, r26
    125c:	bb 1f       	adc	r27, r27
    125e:	ee 1f       	adc	r30, r30
    1260:	ff 1f       	adc	r31, r31
    1262:	a2 17       	cp	r26, r18
    1264:	b3 07       	cpc	r27, r19
    1266:	e4 07       	cpc	r30, r20
    1268:	f5 07       	cpc	r31, r21
    126a:	20 f0       	brcs	.+8      	; 0x1274 <__udivmodsi4_ep>
    126c:	a2 1b       	sub	r26, r18
    126e:	b3 0b       	sbc	r27, r19
    1270:	e4 0b       	sbc	r30, r20
    1272:	f5 0b       	sbc	r31, r21

00001274 <__udivmodsi4_ep>:
    1274:	66 1f       	adc	r22, r22
    1276:	77 1f       	adc	r23, r23
    1278:	88 1f       	adc	r24, r24
    127a:	99 1f       	adc	r25, r25
    127c:	1a 94       	dec	r1
    127e:	69 f7       	brne	.-38     	; 0x125a <__udivmodsi4_loop>
    1280:	60 95       	com	r22
    1282:	70 95       	com	r23
    1284:	80 95       	com	r24
    1286:	90 95       	com	r25
    1288:	9b 01       	movw	r18, r22
    128a:	ac 01       	movw	r20, r24
    128c:	bd 01       	movw	r22, r26
    128e:	cf 01       	movw	r24, r30
    1290:	08 95       	ret

00001292 <__umulhisi3>:
    1292:	a2 9f       	mul	r26, r18
    1294:	b0 01       	movw	r22, r0
    1296:	b3 9f       	mul	r27, r19
    1298:	c0 01       	movw	r24, r0
    129a:	a3 9f       	mul	r26, r19
    129c:	01 d0       	rcall	.+2      	; 0x12a0 <__umulhisi3+0xe>
    129e:	b2 9f       	mul	r27, r18
    12a0:	70 0d       	add	r23, r0
    12a2:	81 1d       	adc	r24, r1
    12a4:	11 24       	eor	r1, r1
    12a6:	91 1d       	adc	r25, r1
    12a8:	08 95       	ret

000012aa <_exit>:
    12aa:	f8 94       	cli

000012ac <__stop_program>:
    12ac:	ff cf       	rjmp	.-2      	; 0x12ac <__stop_program>
